GCASM List File (GCBASIC 0.98.04 RC01 2018-10-20 (Windows 32 bit))

Symbols:
A 	EQU 	0
ABAT 	EQU 	4
ABDEN 	EQU 	0
ABDOVF 	EQU 	7
ACCESS 	EQU 	0
ACKDT 	EQU 	5
ACKEN 	EQU 	4
ACKSTAT 	EQU 	6
ACQT0 	EQU 	3
ACQT1 	EQU 	4
ACQT2 	EQU 	5
ADCMD 	EQU 	5
ADCON0 	EQU 	4034
ADCON1 	EQU 	4033
ADCON2 	EQU 	4032
ADCS0 	EQU 	0
ADCS1 	EQU 	1
ADCS2 	EQU 	2
ADDEN 	EQU 	3
ADDEN1 	EQU 	3
ADDEN2 	EQU 	3
ADEN 	EQU 	3
ADFM 	EQU 	7
ADIE 	EQU 	6
ADIF 	EQU 	6
ADIP 	EQU 	6
ADMSK1 	EQU 	1
ADMSK2 	EQU 	2
ADMSK3 	EQU 	3
ADMSK4 	EQU 	4
ADMSK5 	EQU 	5
ADON 	EQU 	0
ADRES 	EQU 	4035
ADRESH 	EQU 	4036
ADRESL 	EQU 	4035
AFSR0 	EQU 	4073
AFSR0_H 	EQU 	4074
ANCON0 	EQU 	3933
ANCON1 	EQU 	3932
ANSEL0 	EQU 	0
ANSEL1 	EQU 	1
ANSEL10 	EQU 	2
ANSEL11 	EQU 	3
ANSEL12 	EQU 	4
ANSEL13 	EQU 	5
ANSEL14 	EQU 	6
ANSEL2 	EQU 	2
ANSEL3 	EQU 	3
ANSEL4 	EQU 	4
ANSEL5 	EQU 	5
ANSEL6 	EQU 	6
ANSEL7 	EQU 	7
ANSEL8 	EQU 	0
ANSEL9 	EQU 	1
B 	EQU 	1
B0CON 	EQU 	3712
B0CON_FILHIT0 	EQU 	0
B0CON_FILHIT0_TXPRI0 	EQU 	0
B0CON_FILHIT1 	EQU 	1
B0CON_FILHIT1_TXPRI1 	EQU 	1
B0CON_FILHIT2 	EQU 	2
B0CON_FILHIT2_RTREN 	EQU 	2
B0CON_FILHIT3 	EQU 	3
B0CON_FILHIT3_TXREQ 	EQU 	3
B0CON_FILHIT4 	EQU 	4
B0CON_FILHIT4_TXERR 	EQU 	4
B0CON_RTREN 	EQU 	2
B0CON_RXFUL 	EQU 	7
B0CON_RXFUL_TXBIF 	EQU 	7
B0CON_RXM1 	EQU 	6
B0CON_RXM1_TXABT 	EQU 	6
B0CON_RXRTRRO_TXLARB 	EQU 	5
B0CON_TXABT 	EQU 	6
B0CON_TXBIF 	EQU 	7
B0CON_TXERR 	EQU 	4
B0CON_TXLARB 	EQU 	5
B0CON_TXPRI0 	EQU 	0
B0CON_TXPRI1 	EQU 	1
B0CON_TXREQ 	EQU 	3
B0D0 	EQU 	3718
B0D00 	EQU 	0
B0D01 	EQU 	1
B0D02 	EQU 	2
B0D03 	EQU 	3
B0D04 	EQU 	4
B0D05 	EQU 	5
B0D06 	EQU 	6
B0D07 	EQU 	7
B0D1 	EQU 	3719
B0D10 	EQU 	0
B0D11 	EQU 	1
B0D12 	EQU 	2
B0D13 	EQU 	3
B0D14 	EQU 	4
B0D15 	EQU 	5
B0D16 	EQU 	6
B0D17 	EQU 	7
B0D2 	EQU 	3720
B0D20 	EQU 	0
B0D21 	EQU 	1
B0D22 	EQU 	2
B0D23 	EQU 	3
B0D24 	EQU 	4
B0D25 	EQU 	5
B0D26 	EQU 	6
B0D27 	EQU 	7
B0D3 	EQU 	3721
B0D30 	EQU 	0
B0D31 	EQU 	1
B0D32 	EQU 	2
B0D33 	EQU 	3
B0D34 	EQU 	4
B0D35 	EQU 	5
B0D36 	EQU 	6
B0D37 	EQU 	7
B0D4 	EQU 	3722
B0D40 	EQU 	0
B0D41 	EQU 	1
B0D42 	EQU 	2
B0D43 	EQU 	3
B0D44 	EQU 	4
B0D45 	EQU 	5
B0D46 	EQU 	6
B0D47 	EQU 	7
B0D5 	EQU 	3723
B0D50 	EQU 	0
B0D51 	EQU 	1
B0D52 	EQU 	2
B0D53 	EQU 	3
B0D54 	EQU 	4
B0D55 	EQU 	5
B0D56 	EQU 	6
B0D57 	EQU 	7
B0D6 	EQU 	3724
B0D60 	EQU 	0
B0D61 	EQU 	1
B0D62 	EQU 	2
B0D63 	EQU 	3
B0D64 	EQU 	4
B0D65 	EQU 	5
B0D66 	EQU 	6
B0D67 	EQU 	7
B0D7 	EQU 	3725
B0D70 	EQU 	0
B0D71 	EQU 	1
B0D72 	EQU 	2
B0D73 	EQU 	3
B0D74 	EQU 	4
B0D75 	EQU 	5
B0D76 	EQU 	6
B0D77 	EQU 	7
B0DLC 	EQU 	3717
B0DLC_DLC0 	EQU 	0
B0DLC_DLC1 	EQU 	1
B0DLC_DLC2 	EQU 	2
B0DLC_DLC3 	EQU 	3
B0DLC_RXRTR 	EQU 	6
B0DLC_RXRTR_TXRTR 	EQU 	6
B0DLC_TXRTR 	EQU 	6
B0EIDH 	EQU 	3715
B0EIDH_EID10 	EQU 	2
B0EIDH_EID11 	EQU 	3
B0EIDH_EID12 	EQU 	4
B0EIDH_EID13 	EQU 	5
B0EIDH_EID14 	EQU 	6
B0EIDH_EID15 	EQU 	7
B0EIDH_EID8 	EQU 	0
B0EIDH_EID9 	EQU 	1
B0EIDL 	EQU 	3716
B0EIDL_EID0 	EQU 	0
B0EIDL_EID1 	EQU 	1
B0EIDL_EID2 	EQU 	2
B0EIDL_EID3 	EQU 	3
B0EIDL_EID4 	EQU 	4
B0EIDL_EID5 	EQU 	5
B0EIDL_EID6 	EQU 	6
B0EIDL_EID7 	EQU 	7
B0IE 	EQU 	2
B0SIDH 	EQU 	3713
B0SIDH_SID10 	EQU 	7
B0SIDH_SID3 	EQU 	0
B0SIDH_SID4 	EQU 	1
B0SIDH_SID5 	EQU 	2
B0SIDH_SID6 	EQU 	3
B0SIDH_SID7 	EQU 	4
B0SIDH_SID8 	EQU 	5
B0SIDH_SID9 	EQU 	6
B0SIDL 	EQU 	3714
B0SIDL_EID16 	EQU 	0
B0SIDL_EID17 	EQU 	1
B0SIDL_EXIDE 	EQU 	3
B0SIDL_SID0 	EQU 	5
B0SIDL_SID1 	EQU 	6
B0SIDL_SID2 	EQU 	7
B0SIDL_SRR 	EQU 	4
B0TXEN 	EQU 	2
B1CON 	EQU 	3728
B1D0 	EQU 	3734
B1D00 	EQU 	0
B1D01 	EQU 	1
B1D02 	EQU 	2
B1D03 	EQU 	3
B1D04 	EQU 	4
B1D05 	EQU 	5
B1D06 	EQU 	6
B1D07 	EQU 	7
B1D1 	EQU 	3735
B1D10 	EQU 	0
B1D11 	EQU 	1
B1D12 	EQU 	2
B1D13 	EQU 	3
B1D14 	EQU 	4
B1D15 	EQU 	5
B1D16 	EQU 	6
B1D17 	EQU 	7
B1D2 	EQU 	3736
B1D20 	EQU 	0
B1D21 	EQU 	1
B1D22 	EQU 	2
B1D23 	EQU 	3
B1D24 	EQU 	4
B1D25 	EQU 	5
B1D26 	EQU 	6
B1D27 	EQU 	7
B1D3 	EQU 	3737
B1D30 	EQU 	0
B1D31 	EQU 	1
B1D32 	EQU 	2
B1D33 	EQU 	3
B1D34 	EQU 	4
B1D35 	EQU 	5
B1D36 	EQU 	6
B1D37 	EQU 	7
B1D4 	EQU 	3738
B1D40 	EQU 	0
B1D41 	EQU 	1
B1D42 	EQU 	2
B1D43 	EQU 	3
B1D44 	EQU 	4
B1D45 	EQU 	5
B1D46 	EQU 	6
B1D47 	EQU 	7
B1D5 	EQU 	3739
B1D50 	EQU 	0
B1D51 	EQU 	1
B1D52 	EQU 	2
B1D53 	EQU 	3
B1D54 	EQU 	4
B1D55 	EQU 	5
B1D56 	EQU 	6
B1D57 	EQU 	7
B1D6 	EQU 	3740
B1D60 	EQU 	0
B1D61 	EQU 	1
B1D62 	EQU 	2
B1D63 	EQU 	3
B1D64 	EQU 	4
B1D65 	EQU 	5
B1D66 	EQU 	6
B1D67 	EQU 	7
B1D7 	EQU 	3741
B1D70 	EQU 	0
B1D71 	EQU 	1
B1D72 	EQU 	2
B1D73 	EQU 	3
B1D74 	EQU 	4
B1D75 	EQU 	5
B1D76 	EQU 	6
B1D77 	EQU 	7
B1DLC 	EQU 	3733
B1EIDH 	EQU 	3731
B1EIDH_EID10 	EQU 	2
B1EIDH_EID11 	EQU 	3
B1EIDH_EID12 	EQU 	4
B1EIDH_EID13 	EQU 	5
B1EIDH_EID14 	EQU 	6
B1EIDH_EID15 	EQU 	7
B1EIDH_EID8 	EQU 	0
B1EIDH_EID9 	EQU 	1
B1EIDL 	EQU 	3732
B1EIDL_EID0 	EQU 	0
B1EIDL_EID1 	EQU 	1
B1EIDL_EID2 	EQU 	2
B1EIDL_EID3 	EQU 	3
B1EIDL_EID4 	EQU 	4
B1EIDL_EID5 	EQU 	5
B1EIDL_EID6 	EQU 	6
B1EIDL_EID7 	EQU 	7
B1IE 	EQU 	3
B1SIDH 	EQU 	3729
B1SIDH_SID10 	EQU 	7
B1SIDH_SID3 	EQU 	0
B1SIDH_SID4 	EQU 	1
B1SIDH_SID5 	EQU 	2
B1SIDH_SID6 	EQU 	3
B1SIDH_SID7 	EQU 	4
B1SIDH_SID8 	EQU 	5
B1SIDH_SID9 	EQU 	6
B1SIDL 	EQU 	3730
B1SIDL_EID16 	EQU 	0
B1SIDL_EID17 	EQU 	1
B1SIDL_SID0 	EQU 	5
B1SIDL_SID1 	EQU 	6
B1SIDL_SID2 	EQU 	7
B1TXEN 	EQU 	3
B2CON 	EQU 	3744
B2CON_FILHIT0 	EQU 	0
B2CON_FILHIT0_TXPRI0 	EQU 	0
B2CON_FILHIT1 	EQU 	1
B2CON_FILHIT1_TXPRI1 	EQU 	1
B2CON_FILHIT2 	EQU 	2
B2CON_FILHIT2_RTREN 	EQU 	2
B2CON_FILHIT3 	EQU 	3
B2CON_FILHIT3_TXREQ 	EQU 	3
B2CON_FILHIT4 	EQU 	4
B2CON_FILHIT4_TXERR 	EQU 	4
B2CON_RTREN 	EQU 	2
B2CON_RXFUL 	EQU 	7
B2CON_RXFUL_TXBIF 	EQU 	7
B2CON_RXM1 	EQU 	6
B2CON_RXM1_TXABT 	EQU 	6
B2CON_RXRTRRO_TXLARB 	EQU 	5
B2CON_TXABT 	EQU 	6
B2CON_TXBIF 	EQU 	7
B2CON_TXERR 	EQU 	4
B2CON_TXLARB 	EQU 	5
B2CON_TXPRI0 	EQU 	0
B2CON_TXPRI1 	EQU 	1
B2CON_TXREQ 	EQU 	3
B2D0 	EQU 	3750
B2D00 	EQU 	0
B2D01 	EQU 	1
B2D02 	EQU 	2
B2D03 	EQU 	3
B2D04 	EQU 	4
B2D05 	EQU 	5
B2D06 	EQU 	6
B2D07 	EQU 	7
B2D1 	EQU 	3751
B2D10 	EQU 	0
B2D11 	EQU 	1
B2D12 	EQU 	2
B2D13 	EQU 	3
B2D14 	EQU 	4
B2D15 	EQU 	5
B2D16 	EQU 	6
B2D17 	EQU 	7
B2D2 	EQU 	3752
B2D20 	EQU 	0
B2D21 	EQU 	1
B2D22 	EQU 	2
B2D23 	EQU 	3
B2D24 	EQU 	4
B2D25 	EQU 	5
B2D26 	EQU 	6
B2D27 	EQU 	7
B2D3 	EQU 	3753
B2D30 	EQU 	0
B2D31 	EQU 	1
B2D32 	EQU 	2
B2D33 	EQU 	3
B2D34 	EQU 	4
B2D35 	EQU 	5
B2D36 	EQU 	6
B2D37 	EQU 	7
B2D4 	EQU 	3754
B2D40 	EQU 	0
B2D41 	EQU 	1
B2D42 	EQU 	2
B2D43 	EQU 	3
B2D44 	EQU 	4
B2D45 	EQU 	5
B2D46 	EQU 	6
B2D47 	EQU 	7
B2D5 	EQU 	3755
B2D50 	EQU 	0
B2D51 	EQU 	1
B2D52 	EQU 	2
B2D53 	EQU 	3
B2D54 	EQU 	4
B2D55 	EQU 	5
B2D56 	EQU 	6
B2D57 	EQU 	7
B2D6 	EQU 	3756
B2D60 	EQU 	0
B2D61 	EQU 	1
B2D62 	EQU 	2
B2D63 	EQU 	3
B2D64 	EQU 	4
B2D65 	EQU 	5
B2D66 	EQU 	6
B2D67 	EQU 	7
B2D7 	EQU 	3757
B2D70 	EQU 	0
B2D71 	EQU 	1
B2D72 	EQU 	2
B2D73 	EQU 	3
B2D74 	EQU 	4
B2D75 	EQU 	5
B2D76 	EQU 	6
B2D77 	EQU 	7
B2DLC 	EQU 	3749
B2DLC_DLC0 	EQU 	0
B2DLC_DLC1 	EQU 	1
B2DLC_DLC2 	EQU 	2
B2DLC_DLC3 	EQU 	3
B2DLC_RXRTR 	EQU 	6
B2DLC_RXRTR_TXRTR 	EQU 	6
B2DLC_TXRTR 	EQU 	6
B2EIDH 	EQU 	3747
B2EIDH_EID10 	EQU 	2
B2EIDH_EID11 	EQU 	3
B2EIDH_EID12 	EQU 	4
B2EIDH_EID13 	EQU 	5
B2EIDH_EID14 	EQU 	6
B2EIDH_EID15 	EQU 	7
B2EIDH_EID8 	EQU 	0
B2EIDH_EID9 	EQU 	1
B2EIDL 	EQU 	3748
B2EIDL_EID0 	EQU 	0
B2EIDL_EID1 	EQU 	1
B2EIDL_EID2 	EQU 	2
B2EIDL_EID3 	EQU 	3
B2EIDL_EID4 	EQU 	4
B2EIDL_EID5 	EQU 	5
B2EIDL_EID6 	EQU 	6
B2EIDL_EID7 	EQU 	7
B2IE 	EQU 	4
B2SIDH 	EQU 	3745
B2SIDH_SID10 	EQU 	7
B2SIDH_SID3 	EQU 	0
B2SIDH_SID4 	EQU 	1
B2SIDH_SID5 	EQU 	2
B2SIDH_SID6 	EQU 	3
B2SIDH_SID7 	EQU 	4
B2SIDH_SID8 	EQU 	5
B2SIDH_SID9 	EQU 	6
B2SIDL 	EQU 	3746
B2SIDL_EID16 	EQU 	0
B2SIDL_EID17 	EQU 	1
B2SIDL_EXIDE 	EQU 	3
B2SIDL_SID0 	EQU 	5
B2SIDL_SID1 	EQU 	6
B2SIDL_SID2 	EQU 	7
B2SIDL_SRR 	EQU 	4
B2TXEN 	EQU 	4
B3CON 	EQU 	3760
B3CON_FILHIT0 	EQU 	0
B3CON_FILHIT0_TXPRI0 	EQU 	0
B3CON_FILHIT1 	EQU 	1
B3CON_FILHIT1_TXPRI1 	EQU 	1
B3CON_FILHIT2 	EQU 	2
B3CON_FILHIT2_RTREN 	EQU 	2
B3CON_FILHIT3 	EQU 	3
B3CON_FILHIT3_TXREQ 	EQU 	3
B3CON_FILHIT4 	EQU 	4
B3CON_FILHIT4_TXERR 	EQU 	4
B3CON_RTREN 	EQU 	2
B3CON_RXFUL 	EQU 	7
B3CON_RXFUL_TXBIF 	EQU 	7
B3CON_RXM1 	EQU 	6
B3CON_RXM1_TXABT 	EQU 	6
B3CON_RXRTRRO_TXLARB 	EQU 	5
B3CON_TXABT 	EQU 	6
B3CON_TXBIF 	EQU 	7
B3CON_TXERR 	EQU 	4
B3CON_TXLARB 	EQU 	5
B3CON_TXPRI0 	EQU 	0
B3CON_TXPRI1 	EQU 	1
B3CON_TXREQ 	EQU 	3
B3D0 	EQU 	3766
B3D00 	EQU 	0
B3D01 	EQU 	1
B3D02 	EQU 	2
B3D03 	EQU 	3
B3D04 	EQU 	4
B3D05 	EQU 	5
B3D06 	EQU 	6
B3D07 	EQU 	7
B3D1 	EQU 	3767
B3D10 	EQU 	0
B3D11 	EQU 	1
B3D12 	EQU 	2
B3D13 	EQU 	3
B3D14 	EQU 	4
B3D15 	EQU 	5
B3D16 	EQU 	6
B3D17 	EQU 	7
B3D2 	EQU 	3768
B3D20 	EQU 	0
B3D21 	EQU 	1
B3D22 	EQU 	2
B3D23 	EQU 	3
B3D24 	EQU 	4
B3D25 	EQU 	5
B3D26 	EQU 	6
B3D27 	EQU 	7
B3D3 	EQU 	3769
B3D30 	EQU 	0
B3D31 	EQU 	1
B3D32 	EQU 	2
B3D33 	EQU 	3
B3D34 	EQU 	4
B3D35 	EQU 	5
B3D36 	EQU 	6
B3D37 	EQU 	7
B3D4 	EQU 	3770
B3D40 	EQU 	0
B3D41 	EQU 	1
B3D42 	EQU 	2
B3D43 	EQU 	3
B3D44 	EQU 	4
B3D45 	EQU 	5
B3D46 	EQU 	6
B3D47 	EQU 	7
B3D5 	EQU 	3771
B3D50 	EQU 	0
B3D51 	EQU 	1
B3D52 	EQU 	2
B3D53 	EQU 	3
B3D54 	EQU 	4
B3D55 	EQU 	5
B3D56 	EQU 	6
B3D57 	EQU 	7
B3D6 	EQU 	3772
B3D60 	EQU 	0
B3D61 	EQU 	1
B3D62 	EQU 	2
B3D63 	EQU 	3
B3D64 	EQU 	4
B3D65 	EQU 	5
B3D66 	EQU 	6
B3D67 	EQU 	7
B3D7 	EQU 	3773
B3D70 	EQU 	0
B3D71 	EQU 	1
B3D72 	EQU 	2
B3D73 	EQU 	3
B3D74 	EQU 	4
B3D75 	EQU 	5
B3D76 	EQU 	6
B3D77 	EQU 	7
B3DLC 	EQU 	3765
B3DLC_DLC0 	EQU 	0
B3DLC_DLC1 	EQU 	1
B3DLC_DLC2 	EQU 	2
B3DLC_DLC3 	EQU 	3
B3DLC_RXRTR 	EQU 	6
B3DLC_RXRTR_TXRTR 	EQU 	6
B3DLC_TXRTR 	EQU 	6
B3EIDH 	EQU 	3763
B3EIDH_EID10 	EQU 	2
B3EIDH_EID11 	EQU 	3
B3EIDH_EID12 	EQU 	4
B3EIDH_EID13 	EQU 	5
B3EIDH_EID14 	EQU 	6
B3EIDH_EID15 	EQU 	7
B3EIDH_EID8 	EQU 	0
B3EIDH_EID9 	EQU 	1
B3EIDL 	EQU 	3764
B3EIDL_EID0 	EQU 	0
B3EIDL_EID1 	EQU 	1
B3EIDL_EID2 	EQU 	2
B3EIDL_EID3 	EQU 	3
B3EIDL_EID4 	EQU 	4
B3EIDL_EID5 	EQU 	5
B3EIDL_EID6 	EQU 	6
B3EIDL_EID7 	EQU 	7
B3IE 	EQU 	5
B3SIDH 	EQU 	3761
B3SIDH_SID10 	EQU 	7
B3SIDH_SID3 	EQU 	0
B3SIDH_SID4 	EQU 	1
B3SIDH_SID5 	EQU 	2
B3SIDH_SID6 	EQU 	3
B3SIDH_SID7 	EQU 	4
B3SIDH_SID8 	EQU 	5
B3SIDH_SID9 	EQU 	6
B3SIDL 	EQU 	3762
B3SIDL_EID16 	EQU 	0
B3SIDL_EID17 	EQU 	1
B3SIDL_EXIDE 	EQU 	3
B3SIDL_SID0 	EQU 	5
B3SIDL_SID1 	EQU 	6
B3SIDL_SID2 	EQU 	7
B3SIDL_SRR 	EQU 	4
B3TXEN 	EQU 	5
B4CON 	EQU 	3776
B4CON_FILHIT0 	EQU 	0
B4CON_FILHIT0_TXPRI0 	EQU 	0
B4CON_FILHIT1 	EQU 	1
B4CON_FILHIT1_TXPRI1 	EQU 	1
B4CON_FILHIT2 	EQU 	2
B4CON_FILHIT2_RTREN 	EQU 	2
B4CON_FILHIT3 	EQU 	3
B4CON_FILHIT3_TXREQ 	EQU 	3
B4CON_FILHIT4 	EQU 	4
B4CON_FILHIT4_TXERR 	EQU 	4
B4CON_RTREN 	EQU 	2
B4CON_RXFUL 	EQU 	7
B4CON_RXFUL_TXBIF 	EQU 	7
B4CON_RXM1 	EQU 	6
B4CON_RXM1_TXABT 	EQU 	6
B4CON_RXRTRRO_TXLARB 	EQU 	5
B4CON_TXABT 	EQU 	6
B4CON_TXBIF 	EQU 	7
B4CON_TXERR 	EQU 	4
B4CON_TXLARB 	EQU 	5
B4CON_TXPRI0 	EQU 	0
B4CON_TXPRI1 	EQU 	1
B4CON_TXREQ 	EQU 	3
B4D0 	EQU 	3782
B4D00 	EQU 	0
B4D01 	EQU 	1
B4D02 	EQU 	2
B4D03 	EQU 	3
B4D04 	EQU 	4
B4D05 	EQU 	5
B4D06 	EQU 	6
B4D07 	EQU 	7
B4D1 	EQU 	3783
B4D10 	EQU 	0
B4D11 	EQU 	1
B4D12 	EQU 	2
B4D13 	EQU 	3
B4D14 	EQU 	4
B4D15 	EQU 	5
B4D16 	EQU 	6
B4D17 	EQU 	7
B4D2 	EQU 	3784
B4D20 	EQU 	0
B4D21 	EQU 	1
B4D22 	EQU 	2
B4D23 	EQU 	3
B4D24 	EQU 	4
B4D25 	EQU 	5
B4D26 	EQU 	6
B4D27 	EQU 	7
B4D3 	EQU 	3785
B4D30 	EQU 	0
B4D31 	EQU 	1
B4D32 	EQU 	2
B4D33 	EQU 	3
B4D34 	EQU 	4
B4D35 	EQU 	5
B4D36 	EQU 	6
B4D37 	EQU 	7
B4D4 	EQU 	3786
B4D40 	EQU 	0
B4D41 	EQU 	1
B4D42 	EQU 	2
B4D43 	EQU 	3
B4D44 	EQU 	4
B4D45 	EQU 	5
B4D46 	EQU 	6
B4D47 	EQU 	7
B4D5 	EQU 	3787
B4D50 	EQU 	0
B4D51 	EQU 	1
B4D52 	EQU 	2
B4D53 	EQU 	3
B4D54 	EQU 	4
B4D55 	EQU 	5
B4D56 	EQU 	6
B4D57 	EQU 	7
B4D6 	EQU 	3788
B4D60 	EQU 	0
B4D61 	EQU 	1
B4D62 	EQU 	2
B4D63 	EQU 	3
B4D64 	EQU 	4
B4D65 	EQU 	5
B4D66 	EQU 	6
B4D67 	EQU 	7
B4D7 	EQU 	3789
B4D70 	EQU 	0
B4D71 	EQU 	1
B4D72 	EQU 	2
B4D73 	EQU 	3
B4D74 	EQU 	4
B4D75 	EQU 	5
B4D76 	EQU 	6
B4D77 	EQU 	7
B4DLC 	EQU 	3781
B4DLC_DLC0 	EQU 	0
B4DLC_DLC1 	EQU 	1
B4DLC_DLC2 	EQU 	2
B4DLC_DLC3 	EQU 	3
B4DLC_RXRTR 	EQU 	6
B4DLC_RXRTR_TXRTR 	EQU 	6
B4DLC_TXRTR 	EQU 	6
B4EIDH 	EQU 	3779
B4EIDH_EID10 	EQU 	2
B4EIDH_EID11 	EQU 	3
B4EIDH_EID12 	EQU 	4
B4EIDH_EID13 	EQU 	5
B4EIDH_EID14 	EQU 	6
B4EIDH_EID15 	EQU 	7
B4EIDH_EID8 	EQU 	0
B4EIDH_EID9 	EQU 	1
B4EIDL 	EQU 	3780
B4EIDL_EID0 	EQU 	0
B4EIDL_EID1 	EQU 	1
B4EIDL_EID2 	EQU 	2
B4EIDL_EID3 	EQU 	3
B4EIDL_EID4 	EQU 	4
B4EIDL_EID5 	EQU 	5
B4EIDL_EID6 	EQU 	6
B4EIDL_EID7 	EQU 	7
B4IE 	EQU 	6
B4SIDH 	EQU 	3777
B4SIDH_SID10 	EQU 	7
B4SIDH_SID3 	EQU 	0
B4SIDH_SID4 	EQU 	1
B4SIDH_SID5 	EQU 	2
B4SIDH_SID6 	EQU 	3
B4SIDH_SID7 	EQU 	4
B4SIDH_SID8 	EQU 	5
B4SIDH_SID9 	EQU 	6
B4SIDL 	EQU 	3778
B4SIDL_EID16 	EQU 	0
B4SIDL_EID17 	EQU 	1
B4SIDL_EXIDE 	EQU 	3
B4SIDL_SID0 	EQU 	5
B4SIDL_SID1 	EQU 	6
B4SIDL_SID2 	EQU 	7
B4SIDL_SRR 	EQU 	4
B4TXEN 	EQU 	6
B5CON 	EQU 	3792
B5CON_FILHIT0 	EQU 	0
B5CON_FILHIT0_TXPRI0 	EQU 	0
B5CON_FILHIT1 	EQU 	1
B5CON_FILHIT1_TXPRI1 	EQU 	1
B5CON_FILHIT2 	EQU 	2
B5CON_FILHIT2_RTREN 	EQU 	2
B5CON_FILHIT3 	EQU 	3
B5CON_FILHIT3_TXREQ 	EQU 	3
B5CON_FILHIT4 	EQU 	4
B5CON_FILHIT4_TXERR 	EQU 	4
B5CON_RTREN 	EQU 	2
B5CON_RXFUL 	EQU 	7
B5CON_RXFUL_TXBIF 	EQU 	7
B5CON_RXM1 	EQU 	6
B5CON_RXM1_TXABT 	EQU 	6
B5CON_RXRTRRO_TXLARB 	EQU 	5
B5CON_TXABT 	EQU 	6
B5CON_TXBIF 	EQU 	7
B5CON_TXERR 	EQU 	4
B5CON_TXLARB 	EQU 	5
B5CON_TXPRI0 	EQU 	0
B5CON_TXPRI1 	EQU 	1
B5CON_TXREQ 	EQU 	3
B5D0 	EQU 	3798
B5D00 	EQU 	0
B5D01 	EQU 	1
B5D02 	EQU 	2
B5D03 	EQU 	3
B5D04 	EQU 	4
B5D05 	EQU 	5
B5D06 	EQU 	6
B5D07 	EQU 	7
B5D1 	EQU 	3799
B5D10 	EQU 	0
B5D11 	EQU 	1
B5D12 	EQU 	2
B5D13 	EQU 	3
B5D14 	EQU 	4
B5D15 	EQU 	5
B5D16 	EQU 	6
B5D17 	EQU 	7
B5D2 	EQU 	3800
B5D20 	EQU 	0
B5D21 	EQU 	1
B5D22 	EQU 	2
B5D23 	EQU 	3
B5D24 	EQU 	4
B5D25 	EQU 	5
B5D26 	EQU 	6
B5D27 	EQU 	7
B5D3 	EQU 	3801
B5D30 	EQU 	0
B5D31 	EQU 	1
B5D32 	EQU 	2
B5D33 	EQU 	3
B5D34 	EQU 	4
B5D35 	EQU 	5
B5D36 	EQU 	6
B5D37 	EQU 	7
B5D4 	EQU 	3802
B5D40 	EQU 	0
B5D41 	EQU 	1
B5D42 	EQU 	2
B5D43 	EQU 	3
B5D44 	EQU 	4
B5D45 	EQU 	5
B5D46 	EQU 	6
B5D47 	EQU 	7
B5D5 	EQU 	3803
B5D50 	EQU 	0
B5D51 	EQU 	1
B5D52 	EQU 	2
B5D53 	EQU 	3
B5D54 	EQU 	4
B5D55 	EQU 	5
B5D56 	EQU 	6
B5D57 	EQU 	7
B5D6 	EQU 	3804
B5D60 	EQU 	0
B5D61 	EQU 	1
B5D62 	EQU 	2
B5D63 	EQU 	3
B5D64 	EQU 	4
B5D65 	EQU 	5
B5D66 	EQU 	6
B5D67 	EQU 	7
B5D7 	EQU 	3805
B5D70 	EQU 	0
B5D71 	EQU 	1
B5D72 	EQU 	2
B5D73 	EQU 	3
B5D74 	EQU 	4
B5D75 	EQU 	5
B5D76 	EQU 	6
B5D77 	EQU 	7
B5DLC 	EQU 	3797
B5DLC_DLC0 	EQU 	0
B5DLC_DLC1 	EQU 	1
B5DLC_DLC2 	EQU 	2
B5DLC_DLC3 	EQU 	3
B5DLC_RXRTR 	EQU 	6
B5DLC_RXRTR_TXRTR 	EQU 	6
B5DLC_TXRTR 	EQU 	6
B5EIDH 	EQU 	3795
B5EIDH_EID10 	EQU 	2
B5EIDH_EID11 	EQU 	3
B5EIDH_EID12 	EQU 	4
B5EIDH_EID13 	EQU 	5
B5EIDH_EID14 	EQU 	6
B5EIDH_EID15 	EQU 	7
B5EIDH_EID8 	EQU 	0
B5EIDH_EID9 	EQU 	1
B5EIDL 	EQU 	3796
B5EIDL_EID0 	EQU 	0
B5EIDL_EID1 	EQU 	1
B5EIDL_EID2 	EQU 	2
B5EIDL_EID3 	EQU 	3
B5EIDL_EID4 	EQU 	4
B5EIDL_EID5 	EQU 	5
B5EIDL_EID6 	EQU 	6
B5EIDL_EID7 	EQU 	7
B5IE 	EQU 	7
B5SIDH 	EQU 	3793
B5SIDH_SID10 	EQU 	7
B5SIDH_SID3 	EQU 	0
B5SIDH_SID4 	EQU 	1
B5SIDH_SID5 	EQU 	2
B5SIDH_SID6 	EQU 	3
B5SIDH_SID7 	EQU 	4
B5SIDH_SID8 	EQU 	5
B5SIDH_SID9 	EQU 	6
B5SIDL 	EQU 	3794
B5SIDL_EID16 	EQU 	0
B5SIDL_EID17 	EQU 	1
B5SIDL_EXIDE 	EQU 	3
B5SIDL_SID0 	EQU 	5
B5SIDL_SID1 	EQU 	6
B5SIDL_SID2 	EQU 	7
B5SIDL_SRR 	EQU 	4
B5TXEN 	EQU 	7
BANKED 	EQU 	1
BASPROGRAMEND 	EQU 	1082
BASPROGRAMSTART 	EQU 	12
BAUDCON1 	EQU 	4007
BAUDCON2 	EQU 	4025
BAUDCON2_ABDEN 	EQU 	0
BAUDCON2_ABDOVF 	EQU 	7
BAUDCON2_BRG16 	EQU 	3
BAUDCON2_RCIDL 	EQU 	6
BAUDCON2_RCMT 	EQU 	6
BAUDCON2_RXDTP 	EQU 	5
BAUDCON2_TXCKP 	EQU 	4
BAUDCON2_WUE 	EQU 	1
BCLIE 	EQU 	3
BCLIF 	EQU 	3
BCLIP 	EQU 	3
BF 	EQU 	0
BGVST 	EQU 	6
BIE0 	EQU 	3710
BOR 	EQU 	0
BOX 	EQU 	1086
BRG16 	EQU 	3
BRGCON1 	EQU 	3651
BRGCON2 	EQU 	3652
BRGCON3 	EQU 	3653
BRGH 	EQU 	2
BRGH1 	EQU 	2
BRGH2 	EQU 	2
BRP0 	EQU 	0
BRP1 	EQU 	1
BRP2 	EQU 	2
BRP3 	EQU 	3
BRP4 	EQU 	4
BRP5 	EQU 	5
BSEL0 	EQU 	3709
BSR 	EQU 	4064
BYTENUMBER 	EQU 	14
C 	EQU 	0
C1TSEL 	EQU 	0
C2TSEL 	EQU 	1
C3TSEL 	EQU 	2
C4TSEL 	EQU 	3
C5TSEL 	EQU 	4
CANCAP 	EQU 	4
CANCON 	EQU 	3951
CANCON_ABAT 	EQU 	4
CANCON_FP0 	EQU 	0
CANCON_FP1 	EQU 	1
CANCON_FP2 	EQU 	2
CANCON_FP3 	EQU 	3
CANCON_RO0 	EQU 	3903
CANCON_RO0_ABAT 	EQU 	4
CANCON_RO0_FP0 	EQU 	0
CANCON_RO0_FP1 	EQU 	1
CANCON_RO0_FP2 	EQU 	2
CANCON_RO0_FP3 	EQU 	3
CANCON_RO0_WIN0 	EQU 	1
CANCON_RO0_WIN0_FP1 	EQU 	1
CANCON_RO0_WIN1 	EQU 	2
CANCON_RO0_WIN1_FP2 	EQU 	2
CANCON_RO0_WIN2 	EQU 	3
CANCON_RO0_WIN2_FP3 	EQU 	3
CANCON_RO1 	EQU 	3887
CANCON_RO2 	EQU 	3871
CANCON_RO2_ABAT 	EQU 	4
CANCON_RO2_FP0 	EQU 	0
CANCON_RO2_FP1 	EQU 	1
CANCON_RO2_FP2 	EQU 	2
CANCON_RO2_FP3 	EQU 	3
CANCON_RO2_WIN0 	EQU 	1
CANCON_RO2_WIN0_FP1 	EQU 	1
CANCON_RO2_WIN1 	EQU 	2
CANCON_RO2_WIN1_FP2 	EQU 	2
CANCON_RO2_WIN2 	EQU 	3
CANCON_RO2_WIN2_FP3 	EQU 	3
CANCON_RO3 	EQU 	3855
CANCON_RO3_ABAT 	EQU 	4
CANCON_RO3_FP0 	EQU 	0
CANCON_RO3_FP1 	EQU 	1
CANCON_RO3_FP2 	EQU 	2
CANCON_RO3_FP3 	EQU 	3
CANCON_RO3_WIN0 	EQU 	1
CANCON_RO3_WIN0_FP1 	EQU 	1
CANCON_RO3_WIN1 	EQU 	2
CANCON_RO3_WIN1_FP2 	EQU 	2
CANCON_RO3_WIN2 	EQU 	3
CANCON_RO3_WIN2_FP3 	EQU 	3
CANCON_RO4 	EQU 	3807
CANCON_RO4_ABAT 	EQU 	4
CANCON_RO4_FP0 	EQU 	0
CANCON_RO4_FP1 	EQU 	1
CANCON_RO4_FP2 	EQU 	2
CANCON_RO4_FP3 	EQU 	3
CANCON_RO4_WIN0 	EQU 	1
CANCON_RO4_WIN0_FP1 	EQU 	1
CANCON_RO4_WIN1 	EQU 	2
CANCON_RO4_WIN1_FP2 	EQU 	2
CANCON_RO4_WIN2 	EQU 	3
CANCON_RO4_WIN2_FP3 	EQU 	3
CANCON_RO5 	EQU 	3791
CANCON_RO5_ABAT 	EQU 	4
CANCON_RO5_FP0 	EQU 	0
CANCON_RO5_FP1 	EQU 	1
CANCON_RO5_FP2 	EQU 	2
CANCON_RO5_FP3 	EQU 	3
CANCON_RO5_WIN0 	EQU 	1
CANCON_RO5_WIN0_FP1 	EQU 	1
CANCON_RO5_WIN1 	EQU 	2
CANCON_RO5_WIN1_FP2 	EQU 	2
CANCON_RO5_WIN2 	EQU 	3
CANCON_RO5_WIN2_FP3 	EQU 	3
CANCON_RO6 	EQU 	3775
CANCON_RO6_ABAT 	EQU 	4
CANCON_RO6_FP0 	EQU 	0
CANCON_RO6_FP1 	EQU 	1
CANCON_RO6_FP2 	EQU 	2
CANCON_RO6_FP3 	EQU 	3
CANCON_RO6_WIN0 	EQU 	1
CANCON_RO6_WIN0_FP1 	EQU 	1
CANCON_RO6_WIN1 	EQU 	2
CANCON_RO6_WIN1_FP2 	EQU 	2
CANCON_RO6_WIN2 	EQU 	3
CANCON_RO6_WIN2_FP3 	EQU 	3
CANCON_RO7 	EQU 	3759
CANCON_RO7_ABAT 	EQU 	4
CANCON_RO7_FP0 	EQU 	0
CANCON_RO7_FP1 	EQU 	1
CANCON_RO7_FP2 	EQU 	2
CANCON_RO7_FP3 	EQU 	3
CANCON_RO7_WIN0 	EQU 	1
CANCON_RO7_WIN0_FP1 	EQU 	1
CANCON_RO7_WIN1 	EQU 	2
CANCON_RO7_WIN1_FP2 	EQU 	2
CANCON_RO7_WIN2 	EQU 	3
CANCON_RO7_WIN2_FP3 	EQU 	3
CANCON_RO8 	EQU 	3743
CANCON_RO8_ABAT 	EQU 	4
CANCON_RO8_FP0 	EQU 	0
CANCON_RO8_FP1 	EQU 	1
CANCON_RO8_FP2 	EQU 	2
CANCON_RO8_FP3 	EQU 	3
CANCON_RO8_WIN0 	EQU 	1
CANCON_RO8_WIN0_FP1 	EQU 	1
CANCON_RO8_WIN1 	EQU 	2
CANCON_RO8_WIN1_FP2 	EQU 	2
CANCON_RO8_WIN2 	EQU 	3
CANCON_RO8_WIN2_FP3 	EQU 	3
CANCON_RO9 	EQU 	3727
CANCON_RO9_ABAT 	EQU 	4
CANCON_RO9_FP0 	EQU 	0
CANCON_RO9_FP1 	EQU 	1
CANCON_RO9_FP2 	EQU 	2
CANCON_RO9_FP3 	EQU 	3
CANCON_RO9_WIN0 	EQU 	1
CANCON_RO9_WIN0_FP1 	EQU 	1
CANCON_RO9_WIN1 	EQU 	2
CANCON_RO9_WIN1_FP2 	EQU 	2
CANCON_RO9_WIN2 	EQU 	3
CANCON_RO9_WIN2_FP3 	EQU 	3
CANCON_WIN0 	EQU 	1
CANCON_WIN0_FP1 	EQU 	1
CANCON_WIN1 	EQU 	2
CANCON_WIN1_FP2 	EQU 	2
CANCON_WIN2 	EQU 	3
CANCON_WIN2_FP3 	EQU 	3
CANSTAT 	EQU 	3950
CANSTAT_EICODE0 	EQU 	0
CANSTAT_EICODE1 	EQU 	1
CANSTAT_EICODE1_ICODE0 	EQU 	1
CANSTAT_EICODE2 	EQU 	2
CANSTAT_EICODE2_ICODE1 	EQU 	2
CANSTAT_EICODE3 	EQU 	3
CANSTAT_EICODE3_ICODE2 	EQU 	3
CANSTAT_EICODE4 	EQU 	4
CANSTAT_ICODE0 	EQU 	1
CANSTAT_ICODE1 	EQU 	2
CANSTAT_ICODE2 	EQU 	3
CANSTAT_OPMODE0 	EQU 	5
CANSTAT_OPMODE1 	EQU 	6
CANSTAT_OPMODE2 	EQU 	7
CANSTAT_RO0 	EQU 	3902
CANSTAT_RO0_EICODE0 	EQU 	0
CANSTAT_RO0_EICODE1 	EQU 	1
CANSTAT_RO0_EICODE1_ICODE0 	EQU 	1
CANSTAT_RO0_EICODE2 	EQU 	2
CANSTAT_RO0_EICODE2_ICODE1 	EQU 	2
CANSTAT_RO0_EICODE3 	EQU 	3
CANSTAT_RO0_EICODE3_ICODE2 	EQU 	3
CANSTAT_RO0_EICODE4 	EQU 	4
CANSTAT_RO0_ICODE0 	EQU 	1
CANSTAT_RO0_ICODE1 	EQU 	2
CANSTAT_RO0_ICODE2 	EQU 	3
CANSTAT_RO0_OPMODE0 	EQU 	5
CANSTAT_RO0_OPMODE1 	EQU 	6
CANSTAT_RO0_OPMODE2 	EQU 	7
CANSTAT_RO1 	EQU 	3886
CANSTAT_RO2 	EQU 	3870
CANSTAT_RO2_EICODE0 	EQU 	0
CANSTAT_RO2_EICODE1 	EQU 	1
CANSTAT_RO2_EICODE1_ICODE0 	EQU 	1
CANSTAT_RO2_EICODE2 	EQU 	2
CANSTAT_RO2_EICODE2_ICODE1 	EQU 	2
CANSTAT_RO2_EICODE3 	EQU 	3
CANSTAT_RO2_EICODE3_ICODE2 	EQU 	3
CANSTAT_RO2_EICODE4 	EQU 	4
CANSTAT_RO2_ICODE2 	EQU 	3
CANSTAT_RO2_OPMODE0 	EQU 	5
CANSTAT_RO2_OPMODE1 	EQU 	6
CANSTAT_RO2_OPMODE2 	EQU 	7
CANSTAT_RO3 	EQU 	3854
CANSTAT_RO3_EICODE0 	EQU 	0
CANSTAT_RO3_EICODE1 	EQU 	1
CANSTAT_RO3_EICODE1_ICODE0 	EQU 	1
CANSTAT_RO3_EICODE2 	EQU 	2
CANSTAT_RO3_EICODE2_ICODE1 	EQU 	2
CANSTAT_RO3_EICODE3 	EQU 	3
CANSTAT_RO3_EICODE3_ICODE2 	EQU 	3
CANSTAT_RO3_EICODE4 	EQU 	4
CANSTAT_RO3_ICODE0 	EQU 	1
CANSTAT_RO3_ICODE1 	EQU 	2
CANSTAT_RO3_ICODE2 	EQU 	3
CANSTAT_RO3_OPMODE0 	EQU 	5
CANSTAT_RO3_OPMODE1 	EQU 	6
CANSTAT_RO3_OPMODE2 	EQU 	7
CANSTAT_RO4 	EQU 	3806
CANSTAT_RO4_EICODE0 	EQU 	0
CANSTAT_RO4_EICODE1 	EQU 	1
CANSTAT_RO4_EICODE1_ICODE0 	EQU 	1
CANSTAT_RO4_EICODE2 	EQU 	2
CANSTAT_RO4_EICODE2_ICODE1 	EQU 	2
CANSTAT_RO4_EICODE3 	EQU 	3
CANSTAT_RO4_EICODE3_ICODE2 	EQU 	3
CANSTAT_RO4_EICODE4 	EQU 	4
CANSTAT_RO4_ICODE0 	EQU 	1
CANSTAT_RO4_ICODE1 	EQU 	2
CANSTAT_RO4_ICODE2 	EQU 	3
CANSTAT_RO4_OPMODE0 	EQU 	5
CANSTAT_RO4_OPMODE1 	EQU 	6
CANSTAT_RO4_OPMODE2 	EQU 	7
CANSTAT_RO5 	EQU 	3790
CANSTAT_RO5_EICODE0 	EQU 	0
CANSTAT_RO5_EICODE1 	EQU 	1
CANSTAT_RO5_EICODE1_ICODE0 	EQU 	1
CANSTAT_RO5_EICODE2 	EQU 	2
CANSTAT_RO5_EICODE2_ICODE1 	EQU 	2
CANSTAT_RO5_EICODE3 	EQU 	3
CANSTAT_RO5_EICODE3_ICODE2 	EQU 	3
CANSTAT_RO5_EICODE4 	EQU 	4
CANSTAT_RO5_ICODE0 	EQU 	1
CANSTAT_RO5_ICODE1 	EQU 	2
CANSTAT_RO5_ICODE2 	EQU 	3
CANSTAT_RO5_OPMODE0 	EQU 	5
CANSTAT_RO5_OPMODE1 	EQU 	6
CANSTAT_RO5_OPMODE2 	EQU 	7
CANSTAT_RO6 	EQU 	3774
CANSTAT_RO6_EICODE0 	EQU 	0
CANSTAT_RO6_EICODE1 	EQU 	1
CANSTAT_RO6_EICODE1_ICODE0 	EQU 	1
CANSTAT_RO6_EICODE2 	EQU 	2
CANSTAT_RO6_EICODE2_ICODE1 	EQU 	2
CANSTAT_RO6_EICODE3 	EQU 	3
CANSTAT_RO6_EICODE3_ICODE2 	EQU 	3
CANSTAT_RO6_EICODE4 	EQU 	4
CANSTAT_RO6_ICODE0 	EQU 	1
CANSTAT_RO6_ICODE1 	EQU 	2
CANSTAT_RO6_ICODE2 	EQU 	3
CANSTAT_RO6_OPMODE0 	EQU 	5
CANSTAT_RO6_OPMODE1 	EQU 	6
CANSTAT_RO6_OPMODE2 	EQU 	7
CANSTAT_RO7 	EQU 	3758
CANSTAT_RO7_EICODE0 	EQU 	0
CANSTAT_RO7_EICODE1 	EQU 	1
CANSTAT_RO7_EICODE1_ICODE0 	EQU 	1
CANSTAT_RO7_EICODE2 	EQU 	2
CANSTAT_RO7_EICODE2_ICODE1 	EQU 	2
CANSTAT_RO7_EICODE3 	EQU 	3
CANSTAT_RO7_EICODE3_ICODE2 	EQU 	3
CANSTAT_RO7_EICODE4 	EQU 	4
CANSTAT_RO7_ICODE0 	EQU 	1
CANSTAT_RO7_ICODE1 	EQU 	2
CANSTAT_RO7_ICODE2 	EQU 	3
CANSTAT_RO7_OPMODE0 	EQU 	5
CANSTAT_RO7_OPMODE1 	EQU 	6
CANSTAT_RO7_OPMODE2 	EQU 	7
CANSTAT_RO8 	EQU 	3742
CANSTAT_RO8_EICODE0 	EQU 	0
CANSTAT_RO8_EICODE1 	EQU 	1
CANSTAT_RO8_EICODE1_ICODE0 	EQU 	1
CANSTAT_RO8_EICODE2 	EQU 	2
CANSTAT_RO8_EICODE2_ICODE1 	EQU 	2
CANSTAT_RO8_EICODE3 	EQU 	3
CANSTAT_RO8_EICODE3_ICODE2 	EQU 	3
CANSTAT_RO8_EICODE4 	EQU 	4
CANSTAT_RO8_ICODE0 	EQU 	1
CANSTAT_RO8_ICODE1 	EQU 	2
CANSTAT_RO8_ICODE2 	EQU 	3
CANSTAT_RO8_OPMODE0 	EQU 	5
CANSTAT_RO8_OPMODE1 	EQU 	6
CANSTAT_RO8_OPMODE2 	EQU 	7
CANSTAT_RO9 	EQU 	3726
CANSTAT_RO9_EICODE0 	EQU 	0
CANSTAT_RO9_EICODE1 	EQU 	1
CANSTAT_RO9_EICODE1_ICODE0 	EQU 	1
CANSTAT_RO9_EICODE2 	EQU 	2
CANSTAT_RO9_EICODE2_ICODE1 	EQU 	2
CANSTAT_RO9_EICODE3 	EQU 	3
CANSTAT_RO9_EICODE3_ICODE2 	EQU 	3
CANSTAT_RO9_EICODE4 	EQU 	4
CANSTAT_RO9_ICODE0 	EQU 	1
CANSTAT_RO9_ICODE1 	EQU 	2
CANSTAT_RO9_ICODE2 	EQU 	3
CANSTAT_RO9_OPMODE0 	EQU 	5
CANSTAT_RO9_OPMODE1 	EQU 	6
CANSTAT_RO9_OPMODE2 	EQU 	7
CCH0 	EQU 	0
CCH1 	EQU 	1
CCOUNT 	EQU 	15
CCP1CON 	EQU 	4027
CCP1IE 	EQU 	1
CCP1IF 	EQU 	1
CCP1IP 	EQU 	1
CCP1M0 	EQU 	0
CCP1M1 	EQU 	1
CCP1M2 	EQU 	2
CCP1M3 	EQU 	3
CCP1MD 	EQU 	3
CCP1OD 	EQU 	2
CCP1X 	EQU 	5
CCP1Y 	EQU 	4
CCP2CON 	EQU 	3920
CCP2IE 	EQU 	2
CCP2IF 	EQU 	2
CCP2IP 	EQU 	2
CCP2M0 	EQU 	0
CCP2M1 	EQU 	1
CCP2M2 	EQU 	2
CCP2M3 	EQU 	3
CCP2MD 	EQU 	4
CCP2OD 	EQU 	3
CCP2X 	EQU 	5
CCP2Y 	EQU 	4
CCP3CON 	EQU 	3917
CCP3IE 	EQU 	0
CCP3IF 	EQU 	0
CCP3IP 	EQU 	0
CCP3M0 	EQU 	0
CCP3M1 	EQU 	1
CCP3M2 	EQU 	2
CCP3M3 	EQU 	3
CCP3MD 	EQU 	5
CCP3OD 	EQU 	4
CCP3X 	EQU 	5
CCP3Y 	EQU 	4
CCP4CON 	EQU 	3914
CCP4IE 	EQU 	1
CCP4IF 	EQU 	1
CCP4IP 	EQU 	1
CCP4M0 	EQU 	0
CCP4M1 	EQU 	1
CCP4M2 	EQU 	2
CCP4M3 	EQU 	3
CCP4MD 	EQU 	6
CCP4OD 	EQU 	5
CCP4X 	EQU 	5
CCP4Y 	EQU 	4
CCP5CON 	EQU 	3911
CCP5IE 	EQU 	2
CCP5IF 	EQU 	2
CCP5IP 	EQU 	2
CCP5M0 	EQU 	0
CCP5M1 	EQU 	1
CCP5M2 	EQU 	2
CCP5M3 	EQU 	3
CCP5MD 	EQU 	7
CCP5OD 	EQU 	6
CCP5X 	EQU 	5
CCP5Y 	EQU 	4
CCPR1 	EQU 	4028
CCPR1H 	EQU 	4029
CCPR1L 	EQU 	4028
CCPR2 	EQU 	3921
CCPR2H 	EQU 	3922
CCPR2L 	EQU 	3921
CCPR3 	EQU 	3918
CCPR3H 	EQU 	3919
CCPR3L 	EQU 	3918
CCPR4 	EQU 	3915
CCPR4H 	EQU 	3916
CCPR4L 	EQU 	3915
CCPR5 	EQU 	3912
CCPR5H 	EQU 	3913
CCPR5L 	EQU 	3912
CCPTMRS 	EQU 	3993
CFGS 	EQU 	6
CHARCODE 	EQU 	16
CHARCOL 	EQU 	17
CHARCOLS 	EQU 	19
CHARCOL_H 	EQU 	18
CHARLOCX 	EQU 	20
CHARLOCX_H 	EQU 	21
CHARLOCY 	EQU 	22
CHARLOCY_H 	EQU 	23
CHARROW 	EQU 	24
CHARROWS 	EQU 	26
CHARROW_H 	EQU 	25
CHS0 	EQU 	2
CHS1 	EQU 	3
CHS2 	EQU 	4
CHS3 	EQU 	5
CHS4 	EQU 	6
CHSN0 	EQU 	0
CHSN1 	EQU 	1
CHSN2 	EQU 	2
CIOCON 	EQU 	3952
CIRCLE 	EQU 	1396
CKE 	EQU 	6
CKP 	EQU 	4
CLKSEL 	EQU 	0
CM 	EQU 	5
CM1CON 	EQU 	3935
CM1CON1 	EQU 	3935
CM1CON1_CCH0 	EQU 	0
CM1CON1_CCH1 	EQU 	1
CM1CON1_COE 	EQU 	6
CM1CON1_CON 	EQU 	7
CM1CON1_CPOL 	EQU 	5
CM1CON1_CREF 	EQU 	2
CM1CON1_EVPOL0 	EQU 	3
CM1CON1_EVPOL1 	EQU 	4
CM2CON 	EQU 	3934
CM2CON1 	EQU 	3934
CM2CON1_CCH0 	EQU 	0
CM2CON1_CCH1 	EQU 	1
CM2CON1_COE 	EQU 	6
CM2CON1_CON 	EQU 	7
CM2CON1_CPOL 	EQU 	5
CM2CON1_CREF 	EQU 	2
CM2CON1_EVPOL0 	EQU 	3
CM2CON1_EVPOL1 	EQU 	4
CM2CON_CCH0 	EQU 	0
CM2CON_CCH1 	EQU 	1
CM2CON_COE 	EQU 	6
CM2CON_CON 	EQU 	7
CM2CON_CPOL 	EQU 	5
CM2CON_CREF 	EQU 	2
CM2CON_EVPOL0 	EQU 	3
CM2CON_EVPOL1 	EQU 	4
CMP1IE 	EQU 	4
CMP1IF 	EQU 	4
CMP1IP 	EQU 	4
CMP1MD 	EQU 	0
CMP1OUT 	EQU 	6
CMP2IE 	EQU 	5
CMP2IF 	EQU 	5
CMP2IP 	EQU 	5
CMP2MD 	EQU 	1
CMP2OUT 	EQU 	7
CMPL0 	EQU 	6
CMPL1 	EQU 	7
CMSTAT 	EQU 	4020
CMSTATUS 	EQU 	4020
CMSTATUS_CMP1OUT 	EQU 	6
CMSTATUS_CMP2OUT 	EQU 	7
COE 	EQU 	6
COL 	EQU 	27
COMPORT 	EQU 	28
COMSTAT 	EQU 	3953
CON 	EQU 	7
CPOL 	EQU 	5
CREF 	EQU 	2
CREN 	EQU 	4
CREN1 	EQU 	4
CREN2 	EQU 	4
CSRC 	EQU 	7
CSRC1 	EQU 	7
CSRC2 	EQU 	7
CTMUCONH 	EQU 	3925
CTMUCONL 	EQU 	3924
CTMUDS 	EQU 	0
CTMUEN 	EQU 	7
CTMUICON 	EQU 	3923
CTMUIE 	EQU 	3
CTMUIF 	EQU 	3
CTMUIP 	EQU 	3
CTMUMD 	EQU 	6
CTMUSIDL 	EQU 	5
CTTRIG 	EQU 	0
CURRCHARCOL 	EQU 	29
CURRCHARROW 	EQU 	30
CURRCHARVAL 	EQU 	31
CURRCOL 	EQU 	32
CURRPAGE 	EQU 	33
CVR0 	EQU 	0
CVR1 	EQU 	1
CVR2 	EQU 	2
CVR3 	EQU 	3
CVR4 	EQU 	4
CVRCON 	EQU 	4021
CVREN 	EQU 	7
CVROE 	EQU 	6
CVRSS 	EQU 	5
DATAFOROLEDFONT1 	EQU 	1082
DATA_ADDRESS 	EQU 	5
DC 	EQU 	1
DC1B0 	EQU 	4
DC1B1 	EQU 	5
DC2B0 	EQU 	4
DC2B1 	EQU 	5
DC3B0 	EQU 	4
DC3B1 	EQU 	5
DC4B0 	EQU 	4
DC4B1 	EQU 	5
DC5B0 	EQU 	4
DC5B1 	EQU 	5
DDF_X 	EQU 	34
DDF_X_H 	EQU 	35
DDF_Y 	EQU 	36
DDF_Y_H 	EQU 	37
DELAYTEMP 	EQU 	0
DELAYTEMP2 	EQU 	1
DELAYUS1 	EQU 	3964
DELAYUS2 	EQU 	3974
DELAYUS3 	EQU 	3932
DELAYUS4 	EQU 	3942
DELAY_MS 	EQU 	1776
DELAY_S 	EQU 	1804
DIV8NOTNEG 	EQU 	5866
DLC0 	EQU 	0
DLC1 	EQU 	1
DLC2 	EQU 	2
DLC3 	EQU 	3
DMS_INNER 	EQU 	1786
DMS_OUTER 	EQU 	1782
DMS_START 	EQU 	1778
DONE 	EQU 	1
DRAWLINE 	EQU 	38
DRAWLINE_H 	EQU 	39
DS_START 	EQU 	1804
D_A 	EQU 	5
D_NOT_A 	EQU 	5
ECANCON 	EQU 	3954
ECANMD 	EQU 	2
ECCP1AS 	EQU 	4031
ECCP1AS0 	EQU 	4
ECCP1AS1 	EQU 	5
ECCP1AS2 	EQU 	6
ECCP1ASE 	EQU 	7
ECCP1CON 	EQU 	4027
ECCP1CON_CCP1M0 	EQU 	0
ECCP1CON_CCP1M1 	EQU 	1
ECCP1CON_CCP1M2 	EQU 	2
ECCP1CON_CCP1M3 	EQU 	3
ECCP1CON_CCP1X 	EQU 	5
ECCP1CON_CCP1Y 	EQU 	4
ECCP1CON_DC1B0 	EQU 	4
ECCP1CON_DC1B1 	EQU 	5
ECCP1CON_P1M0 	EQU 	6
ECCP1CON_P1M1 	EQU 	7
ECCP1DEL 	EQU 	4030
ECCP2CON 	EQU 	3920
ECCP2CON_CCP2M0 	EQU 	0
ECCP2CON_CCP2M1 	EQU 	1
ECCP2CON_CCP2M2 	EQU 	2
ECCP2CON_CCP2M3 	EQU 	3
ECCP2CON_CCP2X 	EQU 	5
ECCP2CON_CCP2Y 	EQU 	4
ECCP2CON_DC2B0 	EQU 	4
ECCP2CON_DC2B1 	EQU 	5
EDG1POL 	EQU 	4
EDG1SEL0 	EQU 	2
EDG1SEL1 	EQU 	3
EDG1STAT 	EQU 	0
EDG2POL 	EQU 	7
EDG2SEL0 	EQU 	5
EDG2SEL1 	EQU 	6
EDG2STAT 	EQU 	1
EDGEN 	EQU 	3
EDGSEQEN 	EQU 	2
EDI16 	EQU 	0
EDI17 	EQU 	1
EEADR 	EQU 	3956
EEADRH 	EQU 	3957
EECON1 	EQU 	3967
EECON2 	EQU 	3966
EEDATA 	EQU 	3955
EEIE 	EQU 	6
EEIF 	EQU 	6
EEIP 	EQU 	6
EEPGD 	EQU 	7
EICODE0 	EQU 	0
EICODE1 	EQU 	1
EICODE1_ICODE0 	EQU 	1
EICODE2 	EQU 	2
EICODE2_ICODE1 	EQU 	2
EICODE3 	EQU 	3
EICODE3_ICODE2 	EQU 	3
EICODE4 	EQU 	4
EID0 	EQU 	0
EID1 	EQU 	1
EID10 	EQU 	2
EID11 	EQU 	3
EID12 	EQU 	4
EID13 	EQU 	5
EID14 	EQU 	6
EID15 	EQU 	7
EID16 	EQU 	0
EID17 	EQU 	1
EID2 	EQU 	2
EID3 	EQU 	3
EID4 	EQU 	4
EID5 	EQU 	5
EID6 	EQU 	6
EID7 	EQU 	7
EID8 	EQU 	0
EID9 	EQU 	1
ELSE13_1 	EQU 	3356
ELSE24_1 	EQU 	1712
ELSE26_1 	EQU 	4428
ELSE27_1 	EQU 	4458
ELSE28_1 	EQU 	4726
ELSE29_1 	EQU 	4676
ELSE30_1 	EQU 	4816
ELSE42_1 	EQU 	5238
ELSE43_1 	EQU 	5272
ELSE52_1 	EQU 	5770
ELSE62_1 	EQU 	5042
ENDIF1 	EQU 	1078
ENDIF10 	EQU 	3190
ENDIF11 	EQU 	3300
ENDIF12 	EQU 	3314
ENDIF13 	EQU 	3390
ENDIF14 	EQU 	3436
ENDIF15 	EQU 	3446
ENDIF16 	EQU 	3464
ENDIF17 	EQU 	3480
ENDIF18 	EQU 	1134
ENDIF19 	EQU 	1182
ENDIF2 	EQU 	3612
ENDIF20 	EQU 	1218
ENDIF21 	EQU 	1288
ENDIF22 	EQU 	1324
ENDIF23 	EQU 	1394
ENDIF24 	EQU 	1772
ENDIF25 	EQU 	2086
ENDIF26 	EQU 	4432
ENDIF27 	EQU 	4462
ENDIF28 	EQU 	4864
ENDIF29 	EQU 	4704
ENDIF3 	EQU 	3630
ENDIF30 	EQU 	4844
ENDIF31 	EQU 	3070
ENDIF32 	EQU 	3078
ENDIF33 	EQU 	3090
ENDIF34 	EQU 	1840
ENDIF35 	EQU 	1860
ENDIF36 	EQU 	1872
ENDIF37 	EQU 	1886
ENDIF38 	EQU 	1916
ENDIF39 	EQU 	1924
ENDIF4 	EQU 	3714
ENDIF40 	EQU 	5148
ENDIF41 	EQU 	5160
ENDIF42 	EQU 	5244
ENDIF43 	EQU 	5278
ENDIF44 	EQU 	6272
ENDIF45 	EQU 	6286
ENDIF46 	EQU 	6302
ENDIF47 	EQU 	6176
ENDIF48 	EQU 	6190
ENDIF49 	EQU 	6216
ENDIF5 	EQU 	3834
ENDIF50 	EQU 	6056
ENDIF51 	EQU 	6118
ENDIF52 	EQU 	5774
ENDIF53 	EQU 	5732
ENDIF54 	EQU 	5774
ENDIF55 	EQU 	5380
ENDIF56 	EQU 	5456
ENDIF57 	EQU 	5528
ENDIF58 	EQU 	5598
ENDIF59 	EQU 	4006
ENDIF6 	EQU 	3920
ENDIF60 	EQU 	4030
ENDIF61 	EQU 	4046
ENDIF62 	EQU 	5130
ENDIF63 	EQU 	4918
ENDIF64 	EQU 	4964
ENDIF65 	EQU 	4990
ENDIF66 	EQU 	5036
ENDIF67 	EQU 	5060
ENDIF68 	EQU 	5114
ENDIF69 	EQU 	4114
ENDIF7 	EQU 	3516
ENDIF70 	EQU 	4086
ENDIF71 	EQU 	4114
ENDIF72 	EQU 	5916
ENDIF73 	EQU 	5954
ENDIF74 	EQU 	4156
ENDIF8 	EQU 	3592
ENDIF9 	EQU 	3132
ENDRHI 	EQU 	5
ERRIE 	EQU 	5
ERRIF 	EQU 	5
ERRIP 	EQU 	5
EVPOL0 	EQU 	3
EVPOL1 	EQU 	4
EWARN 	EQU 	0
EWIN0 	EQU 	0
EWIN1 	EQU 	1
EWIN2 	EQU 	2
EWIN3 	EQU 	3
EWIN4 	EQU 	4
EXID 	EQU 	3
EXIDE 	EQU 	3
EXIDEN 	EQU 	3
F 	EQU 	1
F0BP_0 	EQU 	0
F0BP_1 	EQU 	1
F0BP_2 	EQU 	2
F0BP_3 	EQU 	3
F10BP_0 	EQU 	0
F10BP_1 	EQU 	1
F10BP_2 	EQU 	2
F10BP_3 	EQU 	3
F11BP_0 	EQU 	4
F11BP_1 	EQU 	5
F11BP_2 	EQU 	6
F11BP_3 	EQU 	7
F12BP_0 	EQU 	0
F12BP_1 	EQU 	1
F12BP_2 	EQU 	2
F12BP_3 	EQU 	3
F13BP_0 	EQU 	4
F13BP_1 	EQU 	5
F13BP_2 	EQU 	6
F13BP_3 	EQU 	7
F14BP_0 	EQU 	0
F14BP_1 	EQU 	1
F14BP_2 	EQU 	2
F14BP_3 	EQU 	3
F15BP_0 	EQU 	4
F15BP_1 	EQU 	5
F15BP_2 	EQU 	6
F15BP_3 	EQU 	7
F1BP_0 	EQU 	4
F1BP_1 	EQU 	5
F1BP_2 	EQU 	6
F1BP_3 	EQU 	7
F2BP_0 	EQU 	0
F2BP_1 	EQU 	1
F2BP_2 	EQU 	2
F2BP_3 	EQU 	3
F3BP_0 	EQU 	4
F3BP_1 	EQU 	5
F3BP_2 	EQU 	6
F3BP_3 	EQU 	7
F4BP_0 	EQU 	0
F4BP_1 	EQU 	1
F4BP_2 	EQU 	2
F4BP_3 	EQU 	3
F5BP_0 	EQU 	4
F5BP_1 	EQU 	5
F5BP_2 	EQU 	6
F5BP_3 	EQU 	7
F6BP_0 	EQU 	0
F6BP_1 	EQU 	1
F6BP_2 	EQU 	2
F6BP_3 	EQU 	3
F7BP_0 	EQU 	4
F7BP_1 	EQU 	5
F7BP_2 	EQU 	6
F7BP_3 	EQU 	7
F8BP_0 	EQU 	0
F8BP_1 	EQU 	1
F8BP_2 	EQU 	2
F8BP_3 	EQU 	3
F9BP_0 	EQU 	4
F9BP_1 	EQU 	5
F9BP_2 	EQU 	6
F9BP_3 	EQU 	7
FERR 	EQU 	2
FERR1 	EQU 	2
FERR2 	EQU 	2
FF 	EQU 	40
FF_H 	EQU 	41
FIFOWM 	EQU 	5
FIFOWMIE 	EQU 	0
FIFOWMIF 	EQU 	0
FIFOWMIP 	EQU 	0
FIL0_0 	EQU 	0
FIL0_1 	EQU 	1
FIL10_0 	EQU 	4
FIL10_1 	EQU 	5
FIL11_0 	EQU 	6
FIL11_1 	EQU 	7
FIL12_0 	EQU 	0
FIL12_1 	EQU 	1
FIL13_0 	EQU 	2
FIL13_1 	EQU 	3
FIL14_0 	EQU 	4
FIL14_1 	EQU 	5
FIL15_0 	EQU 	6
FIL15_1 	EQU 	7
FIL1_0 	EQU 	2
FIL1_1 	EQU 	3
FIL2_0 	EQU 	4
FIL2_1 	EQU 	5
FIL3_0 	EQU 	6
FIL3_1 	EQU 	7
FIL4_0 	EQU 	0
FIL4_1 	EQU 	1
FIL5_0 	EQU 	2
FIL5_1 	EQU 	3
FIL6_0 	EQU 	4
FIL6_1 	EQU 	5
FIL7_0 	EQU 	6
FIL7_1 	EQU 	7
FIL8_0 	EQU 	0
FIL8_1 	EQU 	1
FIL9_0 	EQU 	2
FIL9_1 	EQU 	3
FILHIT0 	EQU 	0
FILHIT0_TXPRI0 	EQU 	0
FILHIT1 	EQU 	1
FILHIT1_TXPRI1 	EQU 	1
FILHIT2 	EQU 	2
FILHIT2_RTREN 	EQU 	2
FILHIT3 	EQU 	3
FILHIT3_TXREQ 	EQU 	3
FILHIT4 	EQU 	4
FILHIT4_TXERR 	EQU 	4
FILLCIRCLEXX 	EQU 	42
FILLCIRCLEYY 	EQU 	43
FILLEDBOX_NT7108C 	EQU 	1820
FILLEDCIRCLE 	EQU 	1926
FLC0 	EQU 	0
FLC1 	EQU 	1
FLC2 	EQU 	2
FLC3 	EQU 	3
FLC4 	EQU 	4
FN_GLCDREADBYTE_NT7108C 	EQU 	3922
FN_HEX 	EQU 	3982
FN_PAD 	EQU 	4866
FN_STR 	EQU 	5302
FP0 	EQU 	0
FP1 	EQU 	1
FP2 	EQU 	2
FP3 	EQU 	3
FREE 	EQU 	4
FSR0H 	EQU 	4074
FSR0L 	EQU 	4073
FSR1H 	EQU 	4066
FSR1L 	EQU 	4065
FSR2H 	EQU 	4058
FSR2L 	EQU 	4057
GCEN 	EQU 	7
GIE 	EQU 	7
GIEH 	EQU 	7
GIEL 	EQU 	6
GIE_GIEH 	EQU 	7
GLCDBACKGROUND 	EQU 	44
GLCDBACKGROUND_H 	EQU 	45
GLCDBITNO 	EQU 	46
GLCDCHANGE 	EQU 	47
GLCDCHARCOL3 	EQU 	2316
GLCDCHARCOL4 	EQU 	2456
GLCDCHARCOL5 	EQU 	2596
GLCDCHARCOL6 	EQU 	2736
GLCDCHARCOL7 	EQU 	2876
GLCDCLS_NT7108C 	EQU 	3016
GLCDCOLOUR 	EQU 	48
GLCDCOLOUR_H 	EQU 	49
GLCDDATATEMP 	EQU 	50
GLCDDRAWCHAR 	EQU 	3096
GLCDDRAWSTRING 	EQU 	3492
GLCDFNTDEFAULT 	EQU 	51
GLCDFNTDEFAULTSIZE 	EQU 	52
GLCDFONTWIDTH 	EQU 	53
GLCDFOREGROUND 	EQU 	54
GLCDFOREGROUND_H 	EQU 	55
GLCDPRINT3 	EQU 	3594
GLCDPRINT5 	EQU 	3716
GLCDPRINTLEN 	EQU 	56
GLCDPRINTLOC 	EQU 	57
GLCDPRINTLOC_H 	EQU 	58
GLCDPRINT_STRING_COUNTER 	EQU 	59
GLCDREADBYTE_NT7108C 	EQU 	60
GLCDTEMP 	EQU 	61
GLCDTEMP_H 	EQU 	62
GLCDWRITEBYTE_NT7108C 	EQU 	3952
GLCDX 	EQU 	63
GLCDY 	EQU 	64
GLCD_COUNT 	EQU 	65
GLCD_YORDINATE 	EQU 	66
GLCD_YORDINATE_H 	EQU 	67
GO 	EQU 	1
GO_DONE 	EQU 	1
GO_NOT_DONE 	EQU 	1
HEX 	EQU 	3522
HFIOFS 	EQU 	2
HLVDCON 	EQU 	4008
HLVDEN 	EQU 	4
HLVDIE 	EQU 	2
HLVDIF 	EQU 	2
HLVDIP 	EQU 	2
HLVDL0 	EQU 	0
HLVDL1 	EQU 	1
HLVDL2 	EQU 	2
HLVDL3 	EQU 	3
HSERPRINTSTRINGCRLF 	EQU 	4058
HSERSEND 	EQU 	4126
I2C_DAT 	EQU 	5
I2C_READ 	EQU 	2
I2C_START 	EQU 	3
I2C_STOP 	EQU 	4
IBF 	EQU 	7
IBOV 	EQU 	5
ICODE0 	EQU 	1
ICODE1 	EQU 	2
ICODE2 	EQU 	3
ICODE20 	EQU 	1
ICODE21 	EQU 	2
IDISSEN 	EQU 	1
IDLEN 	EQU 	7
INDEXFOROLEDEXTENDEDFONT1 	EQU 	1082
INDF0 	EQU 	4079
INDF1 	EQU 	4071
INDF2 	EQU 	4063
INITGLCD_NT7108C 	EQU 	4158
INITSYS 	EQU 	4262
INITUSART 	EQU 	4324
INT0E 	EQU 	4
INT0F 	EQU 	1
INT0IE 	EQU 	4
INT0IF 	EQU 	1
INT1E 	EQU 	3
INT1F 	EQU 	0
INT1IE 	EQU 	3
INT1IF 	EQU 	0
INT1IP 	EQU 	6
INT1P 	EQU 	6
INT2E 	EQU 	4
INT2F 	EQU 	1
INT2IE 	EQU 	4
INT2IF 	EQU 	1
INT2IP 	EQU 	7
INT2P 	EQU 	7
INT3E 	EQU 	5
INT3F 	EQU 	2
INT3IE 	EQU 	5
INT3IF 	EQU 	2
INT3IP 	EQU 	1
INT3P 	EQU 	1
INTCON 	EQU 	4082
INTCON1 	EQU 	4082
INTCON2 	EQU 	4081
INTCON3 	EQU 	4080
INTCON_GIE 	EQU 	7
INTCON_GIEH 	EQU 	7
INTCON_GIEL 	EQU 	6
INTCON_GIE_GIEH 	EQU 	7
INTCON_INT0E 	EQU 	4
INTCON_INT0F 	EQU 	1
INTCON_INT0IE 	EQU 	4
INTCON_INT0IF 	EQU 	1
INTCON_PEIE 	EQU 	6
INTCON_PEIE_GIEL 	EQU 	6
INTCON_RBIE 	EQU 	3
INTCON_RBIF 	EQU 	0
INTCON_T0IE 	EQU 	5
INTCON_T0IF 	EQU 	2
INTCON_TMR0IE 	EQU 	5
INTCON_TMR0IF 	EQU 	2
INTEDG0 	EQU 	6
INTEDG1 	EQU 	5
INTEDG2 	EQU 	4
INTEDG3 	EQU 	3
INTSRC 	EQU 	7
INXRADIUS 	EQU 	68
INXRADIUS_H 	EQU 	69
IOCB 	EQU 	3930
IOCB4 	EQU 	4
IOCB5 	EQU 	5
IOCB6 	EQU 	6
IOCB7 	EQU 	7
IPEN 	EQU 	7
IPR1 	EQU 	3999
IPR2 	EQU 	4002
IPR3 	EQU 	4005
IPR4 	EQU 	4024
IPR5 	EQU 	3960
IRCF0 	EQU 	4
IRCF1 	EQU 	5
IRCF2 	EQU 	6
IRNG0 	EQU 	0
IRNG1 	EQU 	1
IRVST 	EQU 	5
IRXIE 	EQU 	7
IRXIF 	EQU 	7
IRXIP 	EQU 	7
ITRIM0 	EQU 	2
ITRIM1 	EQU 	3
ITRIM2 	EQU 	4
ITRIM3 	EQU 	5
ITRIM4 	EQU 	6
ITRIM5 	EQU 	7
JTOFF 	EQU 	1
JTOFF_FILHIT1 	EQU 	1
LATA 	EQU 	3977
LATA0 	EQU 	0
LATA1 	EQU 	1
LATA2 	EQU 	2
LATA3 	EQU 	3
LATA5 	EQU 	5
LATA6 	EQU 	6
LATA7 	EQU 	7
LATB 	EQU 	3978
LATB0 	EQU 	0
LATB1 	EQU 	1
LATB2 	EQU 	2
LATB3 	EQU 	3
LATB4 	EQU 	4
LATB5 	EQU 	5
LATB6 	EQU 	6
LATB7 	EQU 	7
LATC 	EQU 	3979
LATC0 	EQU 	0
LATC1 	EQU 	1
LATC2 	EQU 	2
LATC3 	EQU 	3
LATC4 	EQU 	4
LATC5 	EQU 	5
LATC6 	EQU 	6
LATC7 	EQU 	7
LATD 	EQU 	3980
LATD0 	EQU 	0
LATD1 	EQU 	1
LATD2 	EQU 	2
LATD3 	EQU 	3
LATD4 	EQU 	4
LATD5 	EQU 	5
LATD6 	EQU 	6
LATD7 	EQU 	7
LATE 	EQU 	3981
LATE0 	EQU 	0
LATE1 	EQU 	1
LATE2 	EQU 	2
LCDBYTE 	EQU 	70
LCDVALUE 	EQU 	71
LCDVALUE_E 	EQU 	74
LCDVALUE_H 	EQU 	72
LCDVALUE_U 	EQU 	73
LINE 	EQU 	4350
LINECOLOUR 	EQU 	75
LINECOLOUR_H 	EQU 	76
LINEDIFFX 	EQU 	77
LINEDIFFX_H 	EQU 	78
LINEDIFFX_X2 	EQU 	79
LINEDIFFX_X2_H 	EQU 	80
LINEDIFFY 	EQU 	81
LINEDIFFY_H 	EQU 	82
LINEDIFFY_X2 	EQU 	83
LINEDIFFY_X2_H 	EQU 	84
LINEERR 	EQU 	85
LINEERR_H 	EQU 	86
LINESTEPX 	EQU 	87
LINESTEPX_H 	EQU 	88
LINESTEPY 	EQU 	89
LINESTEPY_H 	EQU 	90
LINEX1 	EQU 	91
LINEX1_H 	EQU 	92
LINEX2 	EQU 	93
LINEX2_H 	EQU 	94
LINEY1 	EQU 	95
LINEY1_H 	EQU 	96
LINEY2 	EQU 	97
LINEY2_H 	EQU 	98
LONGNUMBER 	EQU 	99
LONGNUMBER_E 	EQU 	102
LONGNUMBER_H 	EQU 	100
LONGNUMBER_U 	EQU 	101
LVDIE 	EQU 	2
LVDIF 	EQU 	2
LVDIP 	EQU 	2
LVDL0 	EQU 	0
LVDL1 	EQU 	1
LVDL2 	EQU 	2
LVDL3 	EQU 	3
MDSEL0 	EQU 	6
MDSEL1 	EQU 	7
MFIOFS 	EQU 	1
MFIOSEL 	EQU 	0
MSEL0 	EQU 	3705
MSEL1 	EQU 	3706
MSEL2 	EQU 	3707
MSEL3 	EQU 	3708
MSK0 	EQU 	0
MSK1 	EQU 	1
MSK2 	EQU 	2
MSK3 	EQU 	3
MSK4 	EQU 	4
MSK5 	EQU 	5
MSK6 	EQU 	6
MSK7 	EQU 	7
N 	EQU 	4
NOT_A 	EQU 	5
NOT_ADDRESS 	EQU 	5
NOT_BOR 	EQU 	0
NOT_CM 	EQU 	5
NOT_DONE 	EQU 	1
NOT_FIFOEMPTY 	EQU 	7
NOT_PD 	EQU 	2
NOT_POR 	EQU 	1
NOT_RBPU 	EQU 	7
NOT_RC8 	EQU 	6
NOT_RI 	EQU 	4
NOT_T1DONE 	EQU 	3
NOT_T1SYNC 	EQU 	2
NOT_T3DONE 	EQU 	3
NOT_T3SYNC 	EQU 	2
NOT_TO 	EQU 	3
NOT_TX8 	EQU 	6
NOT_W 	EQU 	2
NOT_WRITE 	EQU 	2
OBF 	EQU 	6
ODCON 	EQU 	3985
OERR 	EQU 	1
OERR1 	EQU 	1
OERR2 	EQU 	1
OPMODE0 	EQU 	5
OPMODE1 	EQU 	6
OPMODE2 	EQU 	7
OSCCON 	EQU 	4051
OSCCON2 	EQU 	4050
OSCFIE 	EQU 	7
OSCFIF 	EQU 	7
OSCFIP 	EQU 	7
OSCTUNE 	EQU 	3995
OSTS 	EQU 	3
OUTSTRING 	EQU 	3605
OV 	EQU 	3
P 	EQU 	4
P1DC0 	EQU 	0
P1DC1 	EQU 	1
P1DC2 	EQU 	2
P1DC3 	EQU 	3
P1DC4 	EQU 	4
P1DC5 	EQU 	5
P1DC6 	EQU 	6
P1M0 	EQU 	6
P1M1 	EQU 	7
P1RSEN 	EQU 	7
PAD 	EQU 	3564
PADCFG1 	EQU 	3926
PC 	EQU 	4089
PCL 	EQU 	4089
PCLATH 	EQU 	4090
PCLATU 	EQU 	4091
PD 	EQU 	2
PEIE 	EQU 	6
PEIE_GIEL 	EQU 	6
PEN 	EQU 	2
PIE1 	EQU 	3997
PIE2 	EQU 	4000
PIE3 	EQU 	4003
PIE4 	EQU 	4022
PIE5 	EQU 	3958
PIE5_RXB0IE 	EQU 	0
PIE5_RXB1IE 	EQU 	1
PIE5_TXB0IE 	EQU 	2
PIE5_TXB1IE 	EQU 	3
PIE5_TXB2IE 	EQU 	4
PIR1 	EQU 	3998
PIR2 	EQU 	4001
PIR3 	EQU 	4004
PIR4 	EQU 	4023
PIR5 	EQU 	3959
PLLEN 	EQU 	6
PLUSW0 	EQU 	4075
PLUSW1 	EQU 	4067
PLUSW2 	EQU 	4059
PMD0 	EQU 	3929
PMD1 	EQU 	3928
PMD2 	EQU 	3927
POR 	EQU 	1
PORTA 	EQU 	3968
PORTB 	EQU 	3969
PORTC 	EQU 	3970
PORTD 	EQU 	3971
PORTE 	EQU 	3972
POSTDEC0 	EQU 	4077
POSTDEC1 	EQU 	4069
POSTDEC2 	EQU 	4061
POSTINC0 	EQU 	4078
POSTINC1 	EQU 	4070
POSTINC2 	EQU 	4062
PR2 	EQU 	4043
PR4 	EQU 	4009
PREINC0 	EQU 	4076
PREINC1 	EQU 	4068
PREINC2 	EQU 	4060
PRINTLEN 	EQU 	103
PRINTLOCX 	EQU 	104
PRINTLOCX_H 	EQU 	105
PRINTLOCY 	EQU 	106
PRINTLOCY_H 	EQU 	107
PROD 	EQU 	4083
PRODH 	EQU 	4084
PRODL 	EQU 	4083
PRSEG0 	EQU 	0
PRSEG1 	EQU 	1
PRSEG2 	EQU 	2
PSA 	EQU 	3
PSET_NT7108C 	EQU 	5132
PSPCON 	EQU 	3910
PSPIE 	EQU 	7
PSPIF 	EQU 	7
PSPIP 	EQU 	7
PSPMD 	EQU 	7
PSPMODE 	EQU 	4
PSS1AC0 	EQU 	2
PSS1AC1 	EQU 	3
PSS1BD0 	EQU 	0
PSS1BD1 	EQU 	1
PSTR1CON 	EQU 	3996
PWM1CON 	EQU 	4030
PWM1CON_P1DC0 	EQU 	0
PWM1CON_P1DC1 	EQU 	1
PWM1CON_P1DC2 	EQU 	2
PWM1CON_P1DC3 	EQU 	3
PWM1CON_P1DC4 	EQU 	4
PWM1CON_P1DC5 	EQU 	5
PWM1CON_P1DC6 	EQU 	6
PWM1CON_P1RSEN 	EQU 	7
RA0 	EQU 	0
RA1 	EQU 	1
RA2 	EQU 	2
RA3 	EQU 	3
RA5 	EQU 	5
RA6 	EQU 	6
RA7 	EQU 	7
RADIUSERR 	EQU 	108
RADIUSERR_H 	EQU 	109
RB0DBEN 	EQU 	2
RB0DBEN_FILHIT2 	EQU 	2
RB0_B0DLC 	EQU 	4
RB0_B1DLC 	EQU 	4
RB0_B2DLC 	EQU 	4
RB0_B3DLC 	EQU 	4
RB0_B4DLC 	EQU 	4
RB0_B5DLC 	EQU 	4
RB0_PORTB 	EQU 	0
RB0_RXB0DLC 	EQU 	4
RB0_RXB1DLC 	EQU 	4
RB1_B0DLC 	EQU 	5
RB1_B1DLC 	EQU 	5
RB1_B2DLC 	EQU 	5
RB1_B3DLC 	EQU 	5
RB1_B4DLC 	EQU 	5
RB1_B5DLC 	EQU 	5
RB1_PORTB 	EQU 	1
RB1_RXB0DLC 	EQU 	5
RB1_RXB1DLC 	EQU 	5
RB2 	EQU 	2
RB3 	EQU 	3
RB4 	EQU 	4
RB5 	EQU 	5
RB6 	EQU 	6
RB7 	EQU 	7
RBIE 	EQU 	3
RBIF 	EQU 	0
RBIP 	EQU 	0
RBPU 	EQU 	7
RC0 	EQU 	0
RC1 	EQU 	1
RC1IE 	EQU 	5
RC1IF 	EQU 	5
RC1IP 	EQU 	5
RC2 	EQU 	2
RC2IE 	EQU 	5
RC2IF 	EQU 	5
RC2IP 	EQU 	5
RC3 	EQU 	3
RC4 	EQU 	4
RC5 	EQU 	5
RC6 	EQU 	6
RC7 	EQU 	7
RC8_9 	EQU 	6
RC9 	EQU 	6
RCD8 	EQU 	0
RCEN 	EQU 	3
RCIDL 	EQU 	6
RCIE 	EQU 	5
RCIF 	EQU 	5
RCIP 	EQU 	5
RCMT 	EQU 	6
RCON 	EQU 	4048
RCREG 	EQU 	4014
RCREG1 	EQU 	4014
RCREG2 	EQU 	3962
RCSTA 	EQU 	4011
RCSTA1 	EQU 	4011
RCSTA2 	EQU 	4006
RCSTA2_ADDEN 	EQU 	3
RCSTA2_CREN 	EQU 	4
RCSTA2_FERR 	EQU 	2
RCSTA2_OERR 	EQU 	1
RCSTA2_RX9 	EQU 	6
RCSTA2_RX9D 	EQU 	0
RCSTA2_SPEN 	EQU 	7
RCSTA2_SREN 	EQU 	5
RCSTA_ADDEN 	EQU 	3
RCSTA_ADDEN1 	EQU 	3
RCSTA_ADEN 	EQU 	3
RCSTA_CREN 	EQU 	4
RCSTA_CREN1 	EQU 	4
RCSTA_FERR 	EQU 	2
RCSTA_FERR1 	EQU 	2
RCSTA_NOT_RC8 	EQU 	6
RCSTA_OERR 	EQU 	1
RCSTA_OERR1 	EQU 	1
RCSTA_RC8_9 	EQU 	6
RCSTA_RC9 	EQU 	6
RCSTA_RCD8 	EQU 	0
RCSTA_RX9 	EQU 	6
RCSTA_RX91 	EQU 	6
RCSTA_RX9D 	EQU 	0
RCSTA_RX9D1 	EQU 	0
RCSTA_SPEN 	EQU 	7
RCSTA_SPEN1 	EQU 	7
RCSTA_SREN 	EQU 	5
RCSTA_SREN1 	EQU 	5
RD 	EQU 	0
RD0 	EQU 	0
RD1 	EQU 	1
RD16 	EQU 	1
RD2 	EQU 	2
RD3 	EQU 	3
RD4 	EQU 	4
RD5 	EQU 	5
RD6 	EQU 	6
RD7 	EQU 	7
RDPU 	EQU 	7
RE0 	EQU 	0
RE1 	EQU 	1
RE2 	EQU 	2
RE3 	EQU 	3
READ_WRITE 	EQU 	2
REC0 	EQU 	0
REC1 	EQU 	1
REC2 	EQU 	2
REC3 	EQU 	3
REC4 	EQU 	4
REC5 	EQU 	5
REC6 	EQU 	6
REC7 	EQU 	7
REFOCON 	EQU 	3994
REGSLP 	EQU 	7
REPU 	EQU 	6
RI 	EQU 	4
RODIV0 	EQU 	0
RODIV1 	EQU 	1
RODIV2 	EQU 	2
RODIV3 	EQU 	3
ROON 	EQU 	7
ROSEL 	EQU 	4
ROSSLP 	EQU 	5
ROW 	EQU 	110
RSEN 	EQU 	1
RTREN 	EQU 	2
RTRRO 	EQU 	5
RX9 	EQU 	6
RX91 	EQU 	6
RX92 	EQU 	6
RX9D 	EQU 	0
RX9D1 	EQU 	0
RX9D2 	EQU 	0
RXB0CON 	EQU 	3936
RXB0CON_FILHIT0 	EQU 	0
RXB0CON_FILHIT1 	EQU 	1
RXB0CON_FILHIT2 	EQU 	2
RXB0CON_FILHIT3 	EQU 	3
RXB0CON_FILHIT4 	EQU 	4
RXB0CON_RTRRO 	EQU 	5
RXB0CON_RXFUL 	EQU 	7
RXB0CON_RXM0 	EQU 	5
RXB0CON_RXM0_RTRRO 	EQU 	5
RXB0CON_RXM1 	EQU 	6
RXB0CON_RXRTRRO_FILHIT3 	EQU 	3
RXB0D0 	EQU 	3942
RXB0D00 	EQU 	0
RXB0D01 	EQU 	1
RXB0D02 	EQU 	2
RXB0D03 	EQU 	3
RXB0D04 	EQU 	4
RXB0D05 	EQU 	5
RXB0D06 	EQU 	6
RXB0D07 	EQU 	7
RXB0D1 	EQU 	3943
RXB0D10 	EQU 	0
RXB0D11 	EQU 	1
RXB0D12 	EQU 	2
RXB0D13 	EQU 	3
RXB0D14 	EQU 	4
RXB0D15 	EQU 	5
RXB0D16 	EQU 	6
RXB0D17 	EQU 	7
RXB0D2 	EQU 	3944
RXB0D20 	EQU 	0
RXB0D21 	EQU 	1
RXB0D22 	EQU 	2
RXB0D23 	EQU 	3
RXB0D24 	EQU 	4
RXB0D25 	EQU 	5
RXB0D26 	EQU 	6
RXB0D27 	EQU 	7
RXB0D3 	EQU 	3945
RXB0D30 	EQU 	0
RXB0D31 	EQU 	1
RXB0D32 	EQU 	2
RXB0D33 	EQU 	3
RXB0D34 	EQU 	4
RXB0D35 	EQU 	5
RXB0D36 	EQU 	6
RXB0D37 	EQU 	7
RXB0D4 	EQU 	3946
RXB0D40 	EQU 	0
RXB0D41 	EQU 	1
RXB0D42 	EQU 	2
RXB0D43 	EQU 	3
RXB0D44 	EQU 	4
RXB0D45 	EQU 	5
RXB0D46 	EQU 	6
RXB0D47 	EQU 	7
RXB0D5 	EQU 	3947
RXB0D50 	EQU 	0
RXB0D51 	EQU 	1
RXB0D52 	EQU 	2
RXB0D53 	EQU 	3
RXB0D54 	EQU 	4
RXB0D55 	EQU 	5
RXB0D56 	EQU 	6
RXB0D57 	EQU 	7
RXB0D6 	EQU 	3948
RXB0D60 	EQU 	0
RXB0D61 	EQU 	1
RXB0D62 	EQU 	2
RXB0D63 	EQU 	3
RXB0D64 	EQU 	4
RXB0D65 	EQU 	5
RXB0D66 	EQU 	6
RXB0D67 	EQU 	7
RXB0D7 	EQU 	3949
RXB0D70 	EQU 	0
RXB0D71 	EQU 	1
RXB0D72 	EQU 	2
RXB0D73 	EQU 	3
RXB0D74 	EQU 	4
RXB0D75 	EQU 	5
RXB0D76 	EQU 	6
RXB0D77 	EQU 	7
RXB0DLC 	EQU 	3941
RXB0DLC_DLC0 	EQU 	0
RXB0DLC_DLC1 	EQU 	1
RXB0DLC_DLC2 	EQU 	2
RXB0DLC_DLC3 	EQU 	3
RXB0DLC_RXRTR 	EQU 	6
RXB0EIDH 	EQU 	3939
RXB0EIDH_EID10 	EQU 	2
RXB0EIDH_EID11 	EQU 	3
RXB0EIDH_EID12 	EQU 	4
RXB0EIDH_EID13 	EQU 	5
RXB0EIDH_EID14 	EQU 	6
RXB0EIDH_EID15 	EQU 	7
RXB0EIDH_EID8 	EQU 	0
RXB0EIDH_EID9 	EQU 	1
RXB0EIDL 	EQU 	3940
RXB0EIDL_EID0 	EQU 	0
RXB0EIDL_EID1 	EQU 	1
RXB0EIDL_EID2 	EQU 	2
RXB0EIDL_EID3 	EQU 	3
RXB0EIDL_EID4 	EQU 	4
RXB0EIDL_EID5 	EQU 	5
RXB0EIDL_EID6 	EQU 	6
RXB0EIDL_EID7 	EQU 	7
RXB0IE 	EQU 	0
RXB0IF 	EQU 	0
RXB0IP 	EQU 	0
RXB0OVFL 	EQU 	7
RXB0SIDH 	EQU 	3937
RXB0SIDH_SID10 	EQU 	7
RXB0SIDH_SID3 	EQU 	0
RXB0SIDH_SID4 	EQU 	1
RXB0SIDH_SID5 	EQU 	2
RXB0SIDH_SID6 	EQU 	3
RXB0SIDH_SID7 	EQU 	4
RXB0SIDH_SID8 	EQU 	5
RXB0SIDH_SID9 	EQU 	6
RXB0SIDL 	EQU 	3938
RXB0SIDL_EID16 	EQU 	0
RXB0SIDL_EID17 	EQU 	1
RXB0SIDL_EXID 	EQU 	3
RXB0SIDL_SID0 	EQU 	5
RXB0SIDL_SID1 	EQU 	6
RXB0SIDL_SID2 	EQU 	7
RXB0SIDL_SRR 	EQU 	4
RXB1CON 	EQU 	3888
RXB1CON_FILHIT0 	EQU 	0
RXB1CON_FILHIT1 	EQU 	1
RXB1CON_FILHIT2 	EQU 	2
RXB1CON_FILHIT3 	EQU 	3
RXB1CON_FILHIT4 	EQU 	4
RXB1CON_RXFUL 	EQU 	7
RXB1CON_RXM1 	EQU 	6
RXB1D0 	EQU 	3894
RXB1D00 	EQU 	0
RXB1D01 	EQU 	1
RXB1D02 	EQU 	2
RXB1D03 	EQU 	3
RXB1D04 	EQU 	4
RXB1D05 	EQU 	5
RXB1D06 	EQU 	6
RXB1D07 	EQU 	7
RXB1D1 	EQU 	3895
RXB1D10 	EQU 	0
RXB1D11 	EQU 	1
RXB1D12 	EQU 	2
RXB1D13 	EQU 	3
RXB1D14 	EQU 	4
RXB1D15 	EQU 	5
RXB1D16 	EQU 	6
RXB1D17 	EQU 	7
RXB1D2 	EQU 	3896
RXB1D20 	EQU 	0
RXB1D21 	EQU 	1
RXB1D22 	EQU 	2
RXB1D23 	EQU 	3
RXB1D24 	EQU 	4
RXB1D25 	EQU 	5
RXB1D26 	EQU 	6
RXB1D27 	EQU 	7
RXB1D3 	EQU 	3897
RXB1D30 	EQU 	0
RXB1D31 	EQU 	1
RXB1D32 	EQU 	2
RXB1D33 	EQU 	3
RXB1D34 	EQU 	4
RXB1D35 	EQU 	5
RXB1D36 	EQU 	6
RXB1D37 	EQU 	7
RXB1D4 	EQU 	3898
RXB1D40 	EQU 	0
RXB1D41 	EQU 	1
RXB1D42 	EQU 	2
RXB1D43 	EQU 	3
RXB1D44 	EQU 	4
RXB1D45 	EQU 	5
RXB1D46 	EQU 	6
RXB1D47 	EQU 	7
RXB1D5 	EQU 	3899
RXB1D50 	EQU 	0
RXB1D51 	EQU 	1
RXB1D52 	EQU 	2
RXB1D53 	EQU 	3
RXB1D54 	EQU 	4
RXB1D55 	EQU 	5
RXB1D56 	EQU 	6
RXB1D57 	EQU 	7
RXB1D6 	EQU 	3900
RXB1D60 	EQU 	0
RXB1D61 	EQU 	1
RXB1D62 	EQU 	2
RXB1D63 	EQU 	3
RXB1D64 	EQU 	4
RXB1D65 	EQU 	5
RXB1D66 	EQU 	6
RXB1D67 	EQU 	7
RXB1D7 	EQU 	3901
RXB1D70 	EQU 	0
RXB1D71 	EQU 	1
RXB1D72 	EQU 	2
RXB1D73 	EQU 	3
RXB1D74 	EQU 	4
RXB1D75 	EQU 	5
RXB1D76 	EQU 	6
RXB1D77 	EQU 	7
RXB1DLC 	EQU 	3893
RXB1DLC_DLC0 	EQU 	0
RXB1DLC_DLC1 	EQU 	1
RXB1DLC_DLC2 	EQU 	2
RXB1DLC_DLC3 	EQU 	3
RXB1DLC_RXRTR 	EQU 	6
RXB1EIDH 	EQU 	3891
RXB1EIDH_EID10 	EQU 	2
RXB1EIDH_EID11 	EQU 	3
RXB1EIDH_EID12 	EQU 	4
RXB1EIDH_EID13 	EQU 	5
RXB1EIDH_EID14 	EQU 	6
RXB1EIDH_EID15 	EQU 	7
RXB1EIDH_EID8 	EQU 	0
RXB1EIDH_EID9 	EQU 	1
RXB1EIDL 	EQU 	3892
RXB1EIDL_EID0 	EQU 	0
RXB1EIDL_EID1 	EQU 	1
RXB1EIDL_EID2 	EQU 	2
RXB1EIDL_EID3 	EQU 	3
RXB1EIDL_EID4 	EQU 	4
RXB1EIDL_EID5 	EQU 	5
RXB1EIDL_EID6 	EQU 	6
RXB1EIDL_EID7 	EQU 	7
RXB1IE 	EQU 	1
RXB1IF 	EQU 	1
RXB1IP 	EQU 	1
RXB1OVFL 	EQU 	6
RXB1SIDH 	EQU 	3889
RXB1SIDH_SID10 	EQU 	7
RXB1SIDH_SID3 	EQU 	0
RXB1SIDH_SID4 	EQU 	1
RXB1SIDH_SID5 	EQU 	2
RXB1SIDH_SID6 	EQU 	3
RXB1SIDH_SID7 	EQU 	4
RXB1SIDH_SID8 	EQU 	5
RXB1SIDH_SID9 	EQU 	6
RXB1SIDL 	EQU 	3890
RXB1SIDL_SID0 	EQU 	5
RXB1SIDL_SID1 	EQU 	6
RXB1SIDL_SID2 	EQU 	7
RXB1SIDL_SRR 	EQU 	4
RXBNIE 	EQU 	1
RXBNIF 	EQU 	1
RXBNIP 	EQU 	1
RXBP 	EQU 	3
RXDTP 	EQU 	5
RXERRCNT 	EQU 	3649
RXF0EIDH 	EQU 	3810
RXF0EIDH_EID10 	EQU 	2
RXF0EIDH_EID11 	EQU 	3
RXF0EIDH_EID12 	EQU 	4
RXF0EIDH_EID13 	EQU 	5
RXF0EIDH_EID14 	EQU 	6
RXF0EIDH_EID15 	EQU 	7
RXF0EIDH_EID8 	EQU 	0
RXF0EIDH_EID9 	EQU 	1
RXF0EIDL 	EQU 	3811
RXF0EIDL_EID0 	EQU 	0
RXF0EIDL_EID1 	EQU 	1
RXF0EIDL_EID2 	EQU 	2
RXF0EIDL_EID3 	EQU 	3
RXF0EIDL_EID4 	EQU 	4
RXF0EIDL_EID5 	EQU 	5
RXF0EIDL_EID6 	EQU 	6
RXF0EIDL_EID7 	EQU 	7
RXF0EN 	EQU 	0
RXF0SIDH 	EQU 	3808
RXF0SIDH_SID10 	EQU 	7
RXF0SIDH_SID3 	EQU 	0
RXF0SIDH_SID4 	EQU 	1
RXF0SIDH_SID5 	EQU 	2
RXF0SIDH_SID6 	EQU 	3
RXF0SIDH_SID7 	EQU 	4
RXF0SIDH_SID8 	EQU 	5
RXF0SIDH_SID9 	EQU 	6
RXF0SIDL 	EQU 	3809
RXF0SIDL_EID16 	EQU 	0
RXF0SIDL_EID17 	EQU 	1
RXF0SIDL_EXIDEN 	EQU 	3
RXF0SIDL_SID0 	EQU 	5
RXF0SIDL_SID1 	EQU 	6
RXF0SIDL_SID2 	EQU 	7
RXF10EIDH 	EQU 	3674
RXF10EIDH_EID10 	EQU 	2
RXF10EIDH_EID11 	EQU 	3
RXF10EIDH_EID12 	EQU 	4
RXF10EIDH_EID13 	EQU 	5
RXF10EIDH_EID14 	EQU 	6
RXF10EIDH_EID15 	EQU 	7
RXF10EIDH_EID8 	EQU 	0
RXF10EIDH_EID9 	EQU 	1
RXF10EIDL 	EQU 	3675
RXF10EIDL_EID0 	EQU 	0
RXF10EIDL_EID1 	EQU 	1
RXF10EIDL_EID2 	EQU 	2
RXF10EIDL_EID3 	EQU 	3
RXF10EIDL_EID4 	EQU 	4
RXF10EIDL_EID5 	EQU 	5
RXF10EIDL_EID6 	EQU 	6
RXF10EIDL_EID7 	EQU 	7
RXF10EN 	EQU 	2
RXF10SIDH 	EQU 	3672
RXF10SIDH_SID10 	EQU 	7
RXF10SIDH_SID3 	EQU 	0
RXF10SIDH_SID4 	EQU 	1
RXF10SIDH_SID5 	EQU 	2
RXF10SIDH_SID6 	EQU 	3
RXF10SIDH_SID7 	EQU 	4
RXF10SIDH_SID8 	EQU 	5
RXF10SIDH_SID9 	EQU 	6
RXF10SIDL 	EQU 	3673
RXF10SIDL_EID16 	EQU 	0
RXF10SIDL_EID17 	EQU 	1
RXF10SIDL_EXIDEN 	EQU 	3
RXF10SIDL_SID0 	EQU 	5
RXF10SIDL_SID1 	EQU 	6
RXF10SIDL_SID2 	EQU 	7
RXF11EIDH 	EQU 	3678
RXF11EIDH_EID10 	EQU 	2
RXF11EIDH_EID11 	EQU 	3
RXF11EIDH_EID12 	EQU 	4
RXF11EIDH_EID13 	EQU 	5
RXF11EIDH_EID14 	EQU 	6
RXF11EIDH_EID15 	EQU 	7
RXF11EIDH_EID8 	EQU 	0
RXF11EIDH_EID9 	EQU 	1
RXF11EIDL 	EQU 	3679
RXF11EIDL_EID0 	EQU 	0
RXF11EIDL_EID1 	EQU 	1
RXF11EIDL_EID2 	EQU 	2
RXF11EIDL_EID3 	EQU 	3
RXF11EIDL_EID4 	EQU 	4
RXF11EIDL_EID5 	EQU 	5
RXF11EIDL_EID6 	EQU 	6
RXF11EIDL_EID7 	EQU 	7
RXF11EN 	EQU 	3
RXF11SIDH 	EQU 	3676
RXF11SIDH_SID10 	EQU 	7
RXF11SIDH_SID3 	EQU 	0
RXF11SIDH_SID4 	EQU 	1
RXF11SIDH_SID5 	EQU 	2
RXF11SIDH_SID6 	EQU 	3
RXF11SIDH_SID7 	EQU 	4
RXF11SIDH_SID8 	EQU 	5
RXF11SIDH_SID9 	EQU 	6
RXF11SIDL 	EQU 	3677
RXF11SIDL_EID16 	EQU 	0
RXF11SIDL_EID17 	EQU 	1
RXF11SIDL_EXIDEN 	EQU 	3
RXF11SIDL_SID0 	EQU 	5
RXF11SIDL_SID1 	EQU 	6
RXF11SIDL_SID2 	EQU 	7
RXF12EIDH 	EQU 	3682
RXF12EIDH_EID10 	EQU 	2
RXF12EIDH_EID11 	EQU 	3
RXF12EIDH_EID12 	EQU 	4
RXF12EIDH_EID13 	EQU 	5
RXF12EIDH_EID14 	EQU 	6
RXF12EIDH_EID15 	EQU 	7
RXF12EIDH_EID8 	EQU 	0
RXF12EIDH_EID9 	EQU 	1
RXF12EIDL 	EQU 	3683
RXF12EIDL_EID0 	EQU 	0
RXF12EIDL_EID1 	EQU 	1
RXF12EIDL_EID2 	EQU 	2
RXF12EIDL_EID3 	EQU 	3
RXF12EIDL_EID4 	EQU 	4
RXF12EIDL_EID5 	EQU 	5
RXF12EIDL_EID6 	EQU 	6
RXF12EIDL_EID7 	EQU 	7
RXF12EN 	EQU 	4
RXF12SIDH 	EQU 	3680
RXF12SIDH_SID10 	EQU 	7
RXF12SIDH_SID3 	EQU 	0
RXF12SIDH_SID4 	EQU 	1
RXF12SIDH_SID5 	EQU 	2
RXF12SIDH_SID6 	EQU 	3
RXF12SIDH_SID7 	EQU 	4
RXF12SIDH_SID8 	EQU 	5
RXF12SIDH_SID9 	EQU 	6
RXF12SIDL 	EQU 	3681
RXF12SIDL_EID16 	EQU 	0
RXF12SIDL_EID17 	EQU 	1
RXF12SIDL_EXIDEN 	EQU 	3
RXF12SIDL_SID0 	EQU 	5
RXF12SIDL_SID1 	EQU 	6
RXF12SIDL_SID2 	EQU 	7
RXF13EIDH 	EQU 	3686
RXF13EIDH_EID10 	EQU 	2
RXF13EIDH_EID11 	EQU 	3
RXF13EIDH_EID12 	EQU 	4
RXF13EIDH_EID13 	EQU 	5
RXF13EIDH_EID14 	EQU 	6
RXF13EIDH_EID15 	EQU 	7
RXF13EIDH_EID8 	EQU 	0
RXF13EIDH_EID9 	EQU 	1
RXF13EIDL 	EQU 	3687
RXF13EIDL_EID0 	EQU 	0
RXF13EIDL_EID1 	EQU 	1
RXF13EIDL_EID2 	EQU 	2
RXF13EIDL_EID3 	EQU 	3
RXF13EIDL_EID4 	EQU 	4
RXF13EIDL_EID5 	EQU 	5
RXF13EIDL_EID6 	EQU 	6
RXF13EIDL_EID7 	EQU 	7
RXF13EN 	EQU 	5
RXF13SIDH 	EQU 	3684
RXF13SIDH_SID10 	EQU 	7
RXF13SIDH_SID3 	EQU 	0
RXF13SIDH_SID4 	EQU 	1
RXF13SIDH_SID5 	EQU 	2
RXF13SIDH_SID6 	EQU 	3
RXF13SIDH_SID7 	EQU 	4
RXF13SIDH_SID8 	EQU 	5
RXF13SIDH_SID9 	EQU 	6
RXF13SIDL 	EQU 	3685
RXF13SIDL_EID16 	EQU 	0
RXF13SIDL_EID17 	EQU 	1
RXF13SIDL_EXIDEN 	EQU 	3
RXF13SIDL_SID0 	EQU 	5
RXF13SIDL_SID1 	EQU 	6
RXF13SIDL_SID2 	EQU 	7
RXF14EIDH 	EQU 	3690
RXF14EIDH_EID10 	EQU 	2
RXF14EIDH_EID11 	EQU 	3
RXF14EIDH_EID12 	EQU 	4
RXF14EIDH_EID13 	EQU 	5
RXF14EIDH_EID14 	EQU 	6
RXF14EIDH_EID15 	EQU 	7
RXF14EIDH_EID8 	EQU 	0
RXF14EIDH_EID9 	EQU 	1
RXF14EIDL 	EQU 	3691
RXF14EIDL_EID0 	EQU 	0
RXF14EIDL_EID1 	EQU 	1
RXF14EIDL_EID2 	EQU 	2
RXF14EIDL_EID3 	EQU 	3
RXF14EIDL_EID4 	EQU 	4
RXF14EIDL_EID5 	EQU 	5
RXF14EIDL_EID6 	EQU 	6
RXF14EIDL_EID7 	EQU 	7
RXF14EN 	EQU 	6
RXF14SIDH 	EQU 	3688
RXF14SIDH_SID10 	EQU 	7
RXF14SIDH_SID3 	EQU 	0
RXF14SIDH_SID4 	EQU 	1
RXF14SIDH_SID5 	EQU 	2
RXF14SIDH_SID6 	EQU 	3
RXF14SIDH_SID7 	EQU 	4
RXF14SIDH_SID8 	EQU 	5
RXF14SIDH_SID9 	EQU 	6
RXF14SIDL 	EQU 	3689
RXF14SIDL_EID16 	EQU 	0
RXF14SIDL_EID17 	EQU 	1
RXF14SIDL_EXIDEN 	EQU 	3
RXF14SIDL_SID0 	EQU 	5
RXF14SIDL_SID1 	EQU 	6
RXF14SIDL_SID2 	EQU 	7
RXF15EIDH 	EQU 	3694
RXF15EIDH_EID10 	EQU 	2
RXF15EIDH_EID11 	EQU 	3
RXF15EIDH_EID12 	EQU 	4
RXF15EIDH_EID13 	EQU 	5
RXF15EIDH_EID14 	EQU 	6
RXF15EIDH_EID15 	EQU 	7
RXF15EIDH_EID8 	EQU 	0
RXF15EIDH_EID9 	EQU 	1
RXF15EIDL 	EQU 	3695
RXF15EIDL_EID0 	EQU 	0
RXF15EIDL_EID1 	EQU 	1
RXF15EIDL_EID2 	EQU 	2
RXF15EIDL_EID3 	EQU 	3
RXF15EIDL_EID4 	EQU 	4
RXF15EIDL_EID5 	EQU 	5
RXF15EIDL_EID6 	EQU 	6
RXF15EIDL_EID7 	EQU 	7
RXF15EN 	EQU 	7
RXF15SIDH 	EQU 	3692
RXF15SIDH_SID10 	EQU 	7
RXF15SIDH_SID3 	EQU 	0
RXF15SIDH_SID4 	EQU 	1
RXF15SIDH_SID5 	EQU 	2
RXF15SIDH_SID6 	EQU 	3
RXF15SIDH_SID7 	EQU 	4
RXF15SIDH_SID8 	EQU 	5
RXF15SIDH_SID9 	EQU 	6
RXF15SIDL 	EQU 	3693
RXF15SIDL_EID16 	EQU 	0
RXF15SIDL_EID17 	EQU 	1
RXF15SIDL_EXIDEN 	EQU 	3
RXF15SIDL_SID0 	EQU 	5
RXF15SIDL_SID1 	EQU 	6
RXF15SIDL_SID2 	EQU 	7
RXF1EIDH 	EQU 	3814
RXF1EIDL 	EQU 	3815
RXF1EN 	EQU 	1
RXF1SIDH 	EQU 	3812
RXF1SIDL 	EQU 	3813
RXF2EIDH 	EQU 	3818
RXF2EIDH_EID10 	EQU 	2
RXF2EIDH_EID11 	EQU 	3
RXF2EIDH_EID12 	EQU 	4
RXF2EIDH_EID13 	EQU 	5
RXF2EIDH_EID14 	EQU 	6
RXF2EIDH_EID15 	EQU 	7
RXF2EIDH_EID8 	EQU 	0
RXF2EIDH_EID9 	EQU 	1
RXF2EIDL 	EQU 	3819
RXF2EIDL_EID0 	EQU 	0
RXF2EIDL_EID1 	EQU 	1
RXF2EIDL_EID2 	EQU 	2
RXF2EIDL_EID3 	EQU 	3
RXF2EIDL_EID4 	EQU 	4
RXF2EIDL_EID5 	EQU 	5
RXF2EIDL_EID6 	EQU 	6
RXF2EIDL_EID7 	EQU 	7
RXF2EN 	EQU 	2
RXF2SIDH 	EQU 	3816
RXF2SIDH_SID10 	EQU 	7
RXF2SIDH_SID3 	EQU 	0
RXF2SIDH_SID4 	EQU 	1
RXF2SIDH_SID5 	EQU 	2
RXF2SIDH_SID6 	EQU 	3
RXF2SIDH_SID7 	EQU 	4
RXF2SIDH_SID8 	EQU 	5
RXF2SIDH_SID9 	EQU 	6
RXF2SIDL 	EQU 	3817
RXF2SIDL_EID16 	EQU 	0
RXF2SIDL_EID17 	EQU 	1
RXF2SIDL_EXIDEN 	EQU 	3
RXF2SIDL_SID0 	EQU 	5
RXF2SIDL_SID1 	EQU 	6
RXF2SIDL_SID2 	EQU 	7
RXF3EIDH 	EQU 	3822
RXF3EIDH_EID10 	EQU 	2
RXF3EIDH_EID11 	EQU 	3
RXF3EIDH_EID12 	EQU 	4
RXF3EIDH_EID13 	EQU 	5
RXF3EIDH_EID14 	EQU 	6
RXF3EIDH_EID15 	EQU 	7
RXF3EIDH_EID8 	EQU 	0
RXF3EIDH_EID9 	EQU 	1
RXF3EIDL 	EQU 	3823
RXF3EIDL_EID0 	EQU 	0
RXF3EIDL_EID1 	EQU 	1
RXF3EIDL_EID2 	EQU 	2
RXF3EIDL_EID3 	EQU 	3
RXF3EIDL_EID4 	EQU 	4
RXF3EIDL_EID5 	EQU 	5
RXF3EIDL_EID6 	EQU 	6
RXF3EIDL_EID7 	EQU 	7
RXF3EN 	EQU 	3
RXF3SIDH 	EQU 	3820
RXF3SIDH_SID10 	EQU 	7
RXF3SIDH_SID3 	EQU 	0
RXF3SIDH_SID4 	EQU 	1
RXF3SIDH_SID5 	EQU 	2
RXF3SIDH_SID6 	EQU 	3
RXF3SIDH_SID7 	EQU 	4
RXF3SIDH_SID8 	EQU 	5
RXF3SIDH_SID9 	EQU 	6
RXF3SIDL 	EQU 	3821
RXF3SIDL_EID16 	EQU 	0
RXF3SIDL_EID17 	EQU 	1
RXF3SIDL_EXIDEN 	EQU 	3
RXF3SIDL_SID0 	EQU 	5
RXF3SIDL_SID1 	EQU 	6
RXF3SIDL_SID2 	EQU 	7
RXF4EIDH 	EQU 	3826
RXF4EIDH_EID10 	EQU 	2
RXF4EIDH_EID11 	EQU 	3
RXF4EIDH_EID12 	EQU 	4
RXF4EIDH_EID13 	EQU 	5
RXF4EIDH_EID14 	EQU 	6
RXF4EIDH_EID15 	EQU 	7
RXF4EIDH_EID8 	EQU 	0
RXF4EIDH_EID9 	EQU 	1
RXF4EIDL 	EQU 	3827
RXF4EIDL_EID0 	EQU 	0
RXF4EIDL_EID1 	EQU 	1
RXF4EIDL_EID2 	EQU 	2
RXF4EIDL_EID3 	EQU 	3
RXF4EIDL_EID4 	EQU 	4
RXF4EIDL_EID5 	EQU 	5
RXF4EIDL_EID6 	EQU 	6
RXF4EIDL_EID7 	EQU 	7
RXF4EN 	EQU 	4
RXF4SIDH 	EQU 	3824
RXF4SIDH_SID10 	EQU 	7
RXF4SIDH_SID3 	EQU 	0
RXF4SIDH_SID4 	EQU 	1
RXF4SIDH_SID5 	EQU 	2
RXF4SIDH_SID6 	EQU 	3
RXF4SIDH_SID7 	EQU 	4
RXF4SIDH_SID8 	EQU 	5
RXF4SIDH_SID9 	EQU 	6
RXF4SIDL 	EQU 	3825
RXF4SIDL_EID16 	EQU 	0
RXF4SIDL_EID17 	EQU 	1
RXF4SIDL_EXIDEN 	EQU 	3
RXF4SIDL_SID0 	EQU 	5
RXF4SIDL_SID1 	EQU 	6
RXF4SIDL_SID2 	EQU 	7
RXF5EIDH 	EQU 	3830
RXF5EIDH_EID10 	EQU 	2
RXF5EIDH_EID11 	EQU 	3
RXF5EIDH_EID12 	EQU 	4
RXF5EIDH_EID13 	EQU 	5
RXF5EIDH_EID14 	EQU 	6
RXF5EIDH_EID15 	EQU 	7
RXF5EIDH_EID8 	EQU 	0
RXF5EIDH_EID9 	EQU 	1
RXF5EIDL 	EQU 	3831
RXF5EIDL_EID0 	EQU 	0
RXF5EIDL_EID1 	EQU 	1
RXF5EIDL_EID2 	EQU 	2
RXF5EIDL_EID3 	EQU 	3
RXF5EIDL_EID4 	EQU 	4
RXF5EIDL_EID5 	EQU 	5
RXF5EIDL_EID6 	EQU 	6
RXF5EIDL_EID7 	EQU 	7
RXF5EN 	EQU 	5
RXF5SIDH 	EQU 	3828
RXF5SIDH_SID10 	EQU 	7
RXF5SIDH_SID3 	EQU 	0
RXF5SIDH_SID4 	EQU 	1
RXF5SIDH_SID5 	EQU 	2
RXF5SIDH_SID6 	EQU 	3
RXF5SIDH_SID7 	EQU 	4
RXF5SIDH_SID8 	EQU 	5
RXF5SIDH_SID9 	EQU 	6
RXF5SIDL 	EQU 	3829
RXF5SIDL_EID16 	EQU 	0
RXF5SIDL_EID17 	EQU 	1
RXF5SIDL_EXIDEN 	EQU 	3
RXF5SIDL_SID0 	EQU 	5
RXF5SIDL_SID1 	EQU 	6
RXF5SIDL_SID2 	EQU 	7
RXF6EIDH 	EQU 	3658
RXF6EIDH_EID10 	EQU 	2
RXF6EIDH_EID11 	EQU 	3
RXF6EIDH_EID12 	EQU 	4
RXF6EIDH_EID13 	EQU 	5
RXF6EIDH_EID14 	EQU 	6
RXF6EIDH_EID15 	EQU 	7
RXF6EIDH_EID8 	EQU 	0
RXF6EIDH_EID9 	EQU 	1
RXF6EIDL 	EQU 	3659
RXF6EIDL_EID0 	EQU 	0
RXF6EIDL_EID1 	EQU 	1
RXF6EIDL_EID2 	EQU 	2
RXF6EIDL_EID3 	EQU 	3
RXF6EIDL_EID4 	EQU 	4
RXF6EIDL_EID5 	EQU 	5
RXF6EIDL_EID6 	EQU 	6
RXF6EIDL_EID7 	EQU 	7
RXF6EN 	EQU 	6
RXF6SIDH 	EQU 	3656
RXF6SIDH_SID10 	EQU 	7
RXF6SIDH_SID3 	EQU 	0
RXF6SIDH_SID4 	EQU 	1
RXF6SIDH_SID5 	EQU 	2
RXF6SIDH_SID6 	EQU 	3
RXF6SIDH_SID7 	EQU 	4
RXF6SIDH_SID8 	EQU 	5
RXF6SIDH_SID9 	EQU 	6
RXF6SIDL 	EQU 	3657
RXF6SIDL_EID16 	EQU 	0
RXF6SIDL_EID17 	EQU 	1
RXF6SIDL_EXIDEN 	EQU 	3
RXF6SIDL_SID0 	EQU 	5
RXF6SIDL_SID1 	EQU 	6
RXF6SIDL_SID2 	EQU 	7
RXF7EIDH 	EQU 	3662
RXF7EIDH_EID10 	EQU 	2
RXF7EIDH_EID11 	EQU 	3
RXF7EIDH_EID12 	EQU 	4
RXF7EIDH_EID13 	EQU 	5
RXF7EIDH_EID14 	EQU 	6
RXF7EIDH_EID15 	EQU 	7
RXF7EIDH_EID8 	EQU 	0
RXF7EIDH_EID9 	EQU 	1
RXF7EIDL 	EQU 	3663
RXF7EIDL_EID0 	EQU 	0
RXF7EIDL_EID1 	EQU 	1
RXF7EIDL_EID2 	EQU 	2
RXF7EIDL_EID3 	EQU 	3
RXF7EIDL_EID4 	EQU 	4
RXF7EIDL_EID5 	EQU 	5
RXF7EIDL_EID6 	EQU 	6
RXF7EIDL_EID7 	EQU 	7
RXF7EN 	EQU 	7
RXF7SIDH 	EQU 	3660
RXF7SIDH_SID10 	EQU 	7
RXF7SIDH_SID3 	EQU 	0
RXF7SIDH_SID4 	EQU 	1
RXF7SIDH_SID5 	EQU 	2
RXF7SIDH_SID6 	EQU 	3
RXF7SIDH_SID7 	EQU 	4
RXF7SIDH_SID8 	EQU 	5
RXF7SIDH_SID9 	EQU 	6
RXF7SIDL 	EQU 	3661
RXF7SIDL_EID16 	EQU 	0
RXF7SIDL_EID17 	EQU 	1
RXF7SIDL_EXIDEN 	EQU 	3
RXF7SIDL_SID0 	EQU 	5
RXF7SIDL_SID1 	EQU 	6
RXF7SIDL_SID2 	EQU 	7
RXF8EIDH 	EQU 	3666
RXF8EIDH_EID10 	EQU 	2
RXF8EIDH_EID11 	EQU 	3
RXF8EIDH_EID12 	EQU 	4
RXF8EIDH_EID13 	EQU 	5
RXF8EIDH_EID14 	EQU 	6
RXF8EIDH_EID15 	EQU 	7
RXF8EIDH_EID8 	EQU 	0
RXF8EIDH_EID9 	EQU 	1
RXF8EIDL 	EQU 	3667
RXF8EIDL_EID0 	EQU 	0
RXF8EIDL_EID1 	EQU 	1
RXF8EIDL_EID2 	EQU 	2
RXF8EIDL_EID3 	EQU 	3
RXF8EIDL_EID4 	EQU 	4
RXF8EIDL_EID5 	EQU 	5
RXF8EIDL_EID6 	EQU 	6
RXF8EIDL_EID7 	EQU 	7
RXF8EN 	EQU 	0
RXF8SIDH 	EQU 	3664
RXF8SIDH_SID10 	EQU 	7
RXF8SIDH_SID3 	EQU 	0
RXF8SIDH_SID4 	EQU 	1
RXF8SIDH_SID5 	EQU 	2
RXF8SIDH_SID6 	EQU 	3
RXF8SIDH_SID7 	EQU 	4
RXF8SIDH_SID8 	EQU 	5
RXF8SIDH_SID9 	EQU 	6
RXF8SIDL 	EQU 	3665
RXF8SIDL_EID16 	EQU 	0
RXF8SIDL_EID17 	EQU 	1
RXF8SIDL_EXIDEN 	EQU 	3
RXF8SIDL_SID0 	EQU 	5
RXF8SIDL_SID1 	EQU 	6
RXF8SIDL_SID2 	EQU 	7
RXF9EIDH 	EQU 	3670
RXF9EIDH_EID10 	EQU 	2
RXF9EIDH_EID11 	EQU 	3
RXF9EIDH_EID12 	EQU 	4
RXF9EIDH_EID13 	EQU 	5
RXF9EIDH_EID14 	EQU 	6
RXF9EIDH_EID15 	EQU 	7
RXF9EIDH_EID8 	EQU 	0
RXF9EIDH_EID9 	EQU 	1
RXF9EIDL 	EQU 	3671
RXF9EIDL_EID0 	EQU 	0
RXF9EIDL_EID1 	EQU 	1
RXF9EIDL_EID2 	EQU 	2
RXF9EIDL_EID3 	EQU 	3
RXF9EIDL_EID4 	EQU 	4
RXF9EIDL_EID5 	EQU 	5
RXF9EIDL_EID6 	EQU 	6
RXF9EIDL_EID7 	EQU 	7
RXF9EN 	EQU 	1
RXF9SIDH 	EQU 	3668
RXF9SIDH_SID10 	EQU 	7
RXF9SIDH_SID3 	EQU 	0
RXF9SIDH_SID4 	EQU 	1
RXF9SIDH_SID5 	EQU 	2
RXF9SIDH_SID6 	EQU 	3
RXF9SIDH_SID7 	EQU 	4
RXF9SIDH_SID8 	EQU 	5
RXF9SIDH_SID9 	EQU 	6
RXF9SIDL 	EQU 	3669
RXF9SIDL_EID16 	EQU 	0
RXF9SIDL_EID17 	EQU 	1
RXF9SIDL_EXIDEN 	EQU 	3
RXF9SIDL_SID0 	EQU 	5
RXF9SIDL_SID1 	EQU 	6
RXF9SIDL_SID2 	EQU 	7
RXFBCON0 	EQU 	3697
RXFBCON1 	EQU 	3698
RXFBCON2 	EQU 	3699
RXFBCON3 	EQU 	3700
RXFBCON4 	EQU 	3701
RXFBCON5 	EQU 	3702
RXFBCON6 	EQU 	3703
RXFBCON7 	EQU 	3704
RXFCON0 	EQU 	3654
RXFCON1 	EQU 	3655
RXFUL 	EQU 	7
RXFUL_TXBIF 	EQU 	7
RXM0 	EQU 	5
RXM0EIDH 	EQU 	3834
RXM0EIDH_EID10 	EQU 	2
RXM0EIDH_EID11 	EQU 	3
RXM0EIDH_EID12 	EQU 	4
RXM0EIDH_EID13 	EQU 	5
RXM0EIDH_EID14 	EQU 	6
RXM0EIDH_EID15 	EQU 	7
RXM0EIDH_EID8 	EQU 	0
RXM0EIDH_EID9 	EQU 	1
RXM0EIDL 	EQU 	3835
RXM0EIDL_EID0 	EQU 	0
RXM0EIDL_EID1 	EQU 	1
RXM0EIDL_EID2 	EQU 	2
RXM0EIDL_EID3 	EQU 	3
RXM0EIDL_EID4 	EQU 	4
RXM0EIDL_EID5 	EQU 	5
RXM0EIDL_EID6 	EQU 	6
RXM0EIDL_EID7 	EQU 	7
RXM0SIDH 	EQU 	3832
RXM0SIDH_SID10 	EQU 	7
RXM0SIDH_SID3 	EQU 	0
RXM0SIDH_SID4 	EQU 	1
RXM0SIDH_SID5 	EQU 	2
RXM0SIDH_SID6 	EQU 	3
RXM0SIDH_SID7 	EQU 	4
RXM0SIDH_SID8 	EQU 	5
RXM0SIDH_SID9 	EQU 	6
RXM0SIDL 	EQU 	3833
RXM0SIDL_EID16 	EQU 	0
RXM0SIDL_EID17 	EQU 	1
RXM0SIDL_EXIDEN 	EQU 	3
RXM0SIDL_SID0 	EQU 	5
RXM0SIDL_SID1 	EQU 	6
RXM0SIDL_SID2 	EQU 	7
RXM0_RTRRO 	EQU 	5
RXM1 	EQU 	6
RXM1EIDH 	EQU 	3838
RXM1EIDH_EID10 	EQU 	2
RXM1EIDH_EID11 	EQU 	3
RXM1EIDH_EID12 	EQU 	4
RXM1EIDH_EID13 	EQU 	5
RXM1EIDH_EID14 	EQU 	6
RXM1EIDH_EID15 	EQU 	7
RXM1EIDH_EID8 	EQU 	0
RXM1EIDH_EID9 	EQU 	1
RXM1EIDL 	EQU 	3839
RXM1EIDL_EID0 	EQU 	0
RXM1EIDL_EID1 	EQU 	1
RXM1EIDL_EID2 	EQU 	2
RXM1EIDL_EID3 	EQU 	3
RXM1EIDL_EID4 	EQU 	4
RXM1EIDL_EID5 	EQU 	5
RXM1EIDL_EID6 	EQU 	6
RXM1EIDL_EID7 	EQU 	7
RXM1SIDH 	EQU 	3836
RXM1SIDH_SID10 	EQU 	7
RXM1SIDH_SID3 	EQU 	0
RXM1SIDH_SID4 	EQU 	1
RXM1SIDH_SID5 	EQU 	2
RXM1SIDH_SID6 	EQU 	3
RXM1SIDH_SID7 	EQU 	4
RXM1SIDH_SID8 	EQU 	5
RXM1SIDH_SID9 	EQU 	6
RXM1SIDL 	EQU 	3837
RXM1SIDL_EID16 	EQU 	0
RXM1SIDL_EID17 	EQU 	1
RXM1SIDL_EXIDEN 	EQU 	3
RXM1SIDL_SID0 	EQU 	5
RXM1SIDL_SID1 	EQU 	6
RXM1SIDL_SID2 	EQU 	7
RXM1_TXABT 	EQU 	6
RXRTR 	EQU 	6
RXRTRRO_B0CON 	EQU 	5
RXRTRRO_B1CON 	EQU 	5
RXRTRRO_B2CON 	EQU 	5
RXRTRRO_B3CON 	EQU 	5
RXRTRRO_B4CON 	EQU 	5
RXRTRRO_B5CON 	EQU 	5
RXRTRRO_FILHIT3 	EQU 	3
RXRTRRO_RXB0CON 	EQU 	3
RXRTRRO_RXB1CON 	EQU 	3
RXRTRRO_TXLARB 	EQU 	5
RXRTR_TXRTR 	EQU 	6
RXWARN 	EQU 	1
R_NOT_W 	EQU 	2
R_W 	EQU 	2
S 	EQU 	3
SAM 	EQU 	6
SBOREN 	EQU 	6
SCLT16TRUE 	EQU 	5714
SCLTINTTRUE 	EQU 	5796
SCS0 	EQU 	0
SCS1 	EQU 	1
SDFLC 	EQU 	3696
SEG1PH0 	EQU 	3
SEG1PH1 	EQU 	4
SEG1PH2 	EQU 	5
SEG2PH0 	EQU 	0
SEG2PH1 	EQU 	1
SEG2PH2 	EQU 	2
SEG2PHTS 	EQU 	7
SEN 	EQU 	0
SENDB 	EQU 	3
SENDB1 	EQU 	3
SENDB2 	EQU 	3
SERDATA 	EQU 	111
SID0 	EQU 	5
SID1 	EQU 	6
SID10 	EQU 	7
SID2 	EQU 	7
SID3 	EQU 	0
SID4 	EQU 	1
SID5 	EQU 	2
SID6 	EQU 	3
SID7 	EQU 	4
SID8 	EQU 	5
SID9 	EQU 	6
SJW0 	EQU 	6
SJW1 	EQU 	7
SLRA 	EQU 	0
SLRB 	EQU 	1
SLRC 	EQU 	2
SLRCON 	EQU 	3984
SLRD 	EQU 	3
SLRE 	EQU 	4
SMP 	EQU 	7
SOSCDRV 	EQU 	4
SOSCEN 	EQU 	3
SOSCGO 	EQU 	3
SOSCRUN 	EQU 	6
SP0 	EQU 	0
SP1 	EQU 	1
SP2 	EQU 	2
SP3 	EQU 	3
SP4 	EQU 	4
SPBRG 	EQU 	4015
SPBRG1 	EQU 	4015
SPBRG2 	EQU 	3963
SPBRGH1 	EQU 	3965
SPBRGH2 	EQU 	3964
SPEN 	EQU 	7
SPEN1 	EQU 	7
SPEN2 	EQU 	7
SREN 	EQU 	5
SREN1 	EQU 	5
SREN2 	EQU 	5
SRETEN 	EQU 	4
SRR 	EQU 	4
SSPADD 	EQU 	4040
SSPBUF 	EQU 	4041
SSPCON1 	EQU 	4038
SSPCON2 	EQU 	4037
SSPEN 	EQU 	5
SSPIE 	EQU 	3
SSPIF 	EQU 	3
SSPIP 	EQU 	3
SSPM0 	EQU 	0
SSPM1 	EQU 	1
SSPM2 	EQU 	2
SSPM3 	EQU 	3
SSPMD 	EQU 	0
SSPOD 	EQU 	7
SSPOV 	EQU 	6
SSPSTAT 	EQU 	4039
STATUS 	EQU 	4056
STKFUL 	EQU 	7
STKOVF 	EQU 	7
STKPTR 	EQU 	4092
STKUNF 	EQU 	6
STR 	EQU 	3526
STRA 	EQU 	0
STRB 	EQU 	1
STRC 	EQU 	2
STRD 	EQU 	3
STRINGLOCX 	EQU 	112
STRINGPOINTER 	EQU 	113
STRINGTABLE1 	EQU 	6342
STRINGTABLE2 	EQU 	6348
STRINGTABLE3 	EQU 	6370
STRINGTABLE38 	EQU 	6414
STRINGTABLE4 	EQU 	6384
STRINGTABLE5 	EQU 	6394
STRINGTABLE6 	EQU 	6400
STRINGTABLE63 	EQU 	6416
STRINGTABLE7 	EQU 	6404
STRINGTABLE8 	EQU 	6412
STRSYNC 	EQU 	4
SWDTE 	EQU 	0
SWDTEN 	EQU 	0
SYNC 	EQU 	4
SYNC1 	EQU 	4
SYNC2 	EQU 	4
SYSARRAYTEMP1 	EQU 	114
SYSARRAYTEMP2 	EQU 	115
SYSBYTETEMPA 	EQU 	5
SYSBYTETEMPB 	EQU 	9
SYSBYTETEMPX 	EQU 	0
SYSCALCTEMPA 	EQU 	5
SYSCALCTEMPA_E 	EQU 	8
SYSCALCTEMPA_H 	EQU 	6
SYSCALCTEMPA_U 	EQU 	7
SYSCALCTEMPX 	EQU 	0
SYSCALCTEMPX_H 	EQU 	1
SYSCHARCOUNT 	EQU 	116
SYSCHARSHANDLER 	EQU 	117
SYSCHARSHANDLER_H 	EQU 	118
SYSCOMPEQUAL16 	EQU 	5632
SYSCOMPEQUAL32 	EQU 	5650
SYSCOMPLESSTHAN 	EQU 	5680
SYSCOMPLESSTHAN16 	EQU 	5690
SYSCOMPLESSTHANINT 	EQU 	5718
SYSCOPYSTRING 	EQU 	5800
SYSCOPYSTRINGCHECK 	EQU 	5816
SYSCOPYSTRINGPART 	EQU 	5810
SYSDIV16START 	EQU 	5920
SYSDIV32START 	EQU 	6060
SYSDIV8START 	EQU 	5844
SYSDIVLOOP 	EQU 	4
SYSDIVMULTA 	EQU 	7
SYSDIVMULTA_H 	EQU 	8
SYSDIVMULTB 	EQU 	11
SYSDIVMULTB_H 	EQU 	12
SYSDIVMULTX 	EQU 	2
SYSDIVMULTX_H 	EQU 	3
SYSDIVSUB 	EQU 	5832
SYSDIVSUB16 	EQU 	5872
SYSDIVSUB32 	EQU 	5976
SYSDIVSUBINT 	EQU 	6156
SYSDOLOOP_E1 	EQU 	1080
SYSDOLOOP_E2 	EQU 	3814
SYSDOLOOP_E3 	EQU 	1774
SYSDOLOOP_E4 	EQU 	2314
SYSDOLOOP_E5 	EQU 	4706
SYSDOLOOP_E6 	EQU 	4846
SYSDOLOOP_S1 	EQU 	478
SYSDOLOOP_S2 	EQU 	3718
SYSDOLOOP_S3 	EQU 	1444
SYSDOLOOP_S4 	EQU 	2038
SYSDOLOOP_S5 	EQU 	4598
SYSDOLOOP_S6 	EQU 	4738
SYSFORLOOP1 	EQU 	482
SYSFORLOOP10 	EQU 	1324
SYSFORLOOP11 	EQU 	3026
SYSFORLOOP12 	EQU 	3030
SYSFORLOOP13 	EQU 	3044
SYSFORLOOP14 	EQU 	1872
SYSFORLOOP15 	EQU 	1886
SYSFORLOOP16 	EQU 	4018
SYSFORLOOP17 	EQU 	4918
SYSFORLOOP18 	EQU 	4990
SYSFORLOOP19 	EQU 	5060
SYSFORLOOP2 	EQU 	3630
SYSFORLOOP20 	EQU 	4086
SYSFORLOOP3 	EQU 	3834
SYSFORLOOP4 	EQU 	3516
SYSFORLOOP5 	EQU 	3192
SYSFORLOOP6 	EQU 	3286
SYSFORLOOP7 	EQU 	3300
SYSFORLOOP8 	EQU 	3314
SYSFORLOOP9 	EQU 	1218
SYSFORLOOPEND1 	EQU 	1078
SYSFORLOOPEND10 	EQU 	1394
SYSFORLOOPEND11 	EQU 	3090
SYSFORLOOPEND12 	EQU 	3078
SYSFORLOOPEND13 	EQU 	3070
SYSFORLOOPEND14 	EQU 	1924
SYSFORLOOPEND15 	EQU 	1916
SYSFORLOOPEND16 	EQU 	4030
SYSFORLOOPEND17 	EQU 	4964
SYSFORLOOPEND18 	EQU 	5036
SYSFORLOOPEND19 	EQU 	5114
SYSFORLOOPEND2 	EQU 	3714
SYSFORLOOPEND20 	EQU 	4114
SYSFORLOOPEND3 	EQU 	3920
SYSFORLOOPEND4 	EQU 	3592
SYSFORLOOPEND5 	EQU 	3480
SYSFORLOOPEND6 	EQU 	3464
SYSFORLOOPEND7 	EQU 	3446
SYSFORLOOPEND8 	EQU 	3436
SYSFORLOOPEND9 	EQU 	1288
SYSHEX_0 	EQU 	3522
SYSHEX_1 	EQU 	3523
SYSHEX_2 	EQU 	3524
SYSINTEGERTEMPA 	EQU 	5
SYSINTEGERTEMPA_H 	EQU 	6
SYSINTEGERTEMPB 	EQU 	9
SYSINTEGERTEMPB_H 	EQU 	10
SYSINTEGERTEMPX 	EQU 	0
SYSINTEGERTEMPX_H 	EQU 	1
SYSLCDPRINTDATAHANDLER 	EQU 	119
SYSLCDPRINTDATAHANDLER_H 	EQU 	120
SYSLONGDIVMULTA 	EQU 	121
SYSLONGDIVMULTA_E 	EQU 	124
SYSLONGDIVMULTA_H 	EQU 	122
SYSLONGDIVMULTA_U 	EQU 	123
SYSLONGDIVMULTB 	EQU 	125
SYSLONGDIVMULTB_E 	EQU 	128
SYSLONGDIVMULTB_H 	EQU 	126
SYSLONGDIVMULTB_U 	EQU 	127
SYSLONGDIVMULTX 	EQU 	129
SYSLONGDIVMULTX_E 	EQU 	132
SYSLONGDIVMULTX_H 	EQU 	130
SYSLONGDIVMULTX_U 	EQU 	131
SYSLONGTEMPA 	EQU 	5
SYSLONGTEMPA_E 	EQU 	8
SYSLONGTEMPA_H 	EQU 	6
SYSLONGTEMPA_U 	EQU 	7
SYSLONGTEMPB 	EQU 	9
SYSLONGTEMPB_E 	EQU 	12
SYSLONGTEMPB_H 	EQU 	10
SYSLONGTEMPB_U 	EQU 	11
SYSLONGTEMPX 	EQU 	0
SYSLONGTEMPX_E 	EQU 	3
SYSLONGTEMPX_H 	EQU 	1
SYSLONGTEMPX_U 	EQU 	2
SYSMULTSUB16 	EQU 	6218
SYSMULTSUBINT 	EQU 	6252
SYSPAD_0 	EQU 	3564
SYSPRINTBUFFER 	EQU 	3532
SYSPRINTBUFFLEN 	EQU 	133
SYSPRINTDATAHANDLER 	EQU 	134
SYSPRINTDATAHANDLER_H 	EQU 	135
SYSPRINTTEMP 	EQU 	136
SYSREADSTRING 	EQU 	6304
SYSREADSTRINGPART 	EQU 	6316
SYSREPEATLOOP1 	EQU 	5254
SYSREPEATLOOPEND1 	EQU 	5260
SYSREPEATTEMP1 	EQU 	137
SYSSELECT1CASE1 	EQU 	3194
SYSSELECT1CASE2 	EQU 	3210
SYSSELECT1CASE3 	EQU 	3228
SYSSELECT1CASE4 	EQU 	3246
SYSSELECT1CASE5 	EQU 	3264
SYSSELECTEND1 	EQU 	3280
SYSSIGNBYTE 	EQU 	13
SYSSTRDATA 	EQU 	138
SYSSTRINGA 	EQU 	7
SYSSTRINGA_H 	EQU 	8
SYSSTRINGCOPY 	EQU 	5822
SYSSTRINGLENGTH 	EQU 	6
SYSSTRINGPARAM1 	EQU 	3543
SYSSTRINGREAD 	EQU 	6330
SYSSTRINGREADCHECK 	EQU 	6324
SYSSTRINGTABLES 	EQU 	6342
SYSSTRINGTEMP 	EQU 	139
SYSSTRLEN 	EQU 	140
SYSSTR_0 	EQU 	3526
SYSSYSINSTRING3HANDLER 	EQU 	141
SYSSYSINSTRING3HANDLER_H 	EQU 	142
SYSSYSINSTRINGHANDLER 	EQU 	143
SYSSYSINSTRINGHANDLER_H 	EQU 	144
SYSTEMP1 	EQU 	145
SYSTEMP1_E 	EQU 	148
SYSTEMP1_H 	EQU 	146
SYSTEMP1_U 	EQU 	147
SYSTEMP2 	EQU 	149
SYSTEMP2_H 	EQU 	150
SYSTEMP3 	EQU 	151
SYSTEMP3_H 	EQU 	152
SYSVALHUNDREDS 	EQU 	5478
SYSVALTEMP 	EQU 	153
SYSVALTEMP_H 	EQU 	154
SYSVALTENS 	EQU 	5550
SYSVALTHOUSANDS 	EQU 	5404
SYSWAITLOOP1 	EQU 	4132
SYSWAITLOOP2 	EQU 	4140
SYSWAITTEMPMS 	EQU 	2
SYSWAITTEMPMS_H 	EQU 	3
SYSWAITTEMPS 	EQU 	4
SYSWAITTEMPUS 	EQU 	5
SYSWAITTEMPUS_H 	EQU 	6
SYSWORDTEMPA 	EQU 	5
SYSWORDTEMPA_H 	EQU 	6
SYSWORDTEMPB 	EQU 	9
SYSWORDTEMPB_H 	EQU 	10
SYSWORDTEMPX 	EQU 	0
SYSWORDTEMPX_H 	EQU 	1
T08BIT 	EQU 	6
T0CON 	EQU 	4053
T0CS 	EQU 	5
T0IE 	EQU 	5
T0IF 	EQU 	2
T0IP 	EQU 	2
T0PS0 	EQU 	0
T0PS1 	EQU 	1
T0PS2 	EQU 	2
T0SE 	EQU 	4
T1CKPS0 	EQU 	4
T1CKPS1 	EQU 	5
T1CON 	EQU 	4045
T1GCON 	EQU 	4010
T1GGO 	EQU 	3
T1GGO_NOT_T1DONE 	EQU 	3
T1GPOL 	EQU 	6
T1GSPM 	EQU 	4
T1GSS0 	EQU 	0
T1GSS1 	EQU 	1
T1GTM 	EQU 	5
T1GVAL 	EQU 	2
T2CKPS0 	EQU 	0
T2CKPS1 	EQU 	1
T2CON 	EQU 	4042
T2OUTPS0 	EQU 	3
T2OUTPS1 	EQU 	4
T2OUTPS2 	EQU 	5
T2OUTPS3 	EQU 	6
T3CKPS0 	EQU 	4
T3CKPS1 	EQU 	5
T3CON 	EQU 	4017
T3CON_RD16 	EQU 	1
T3CON_SOSCEN 	EQU 	3
T3GCON 	EQU 	4016
T3GGO 	EQU 	3
T3GGO_NOT_T3DONE 	EQU 	3
T3GPOL 	EQU 	6
T3GSPM 	EQU 	4
T3GSS0 	EQU 	0
T3GSS1 	EQU 	1
T3GTM 	EQU 	5
T3GVAL 	EQU 	2
T4CKPS0 	EQU 	0
T4CKPS1 	EQU 	1
T4CON 	EQU 	3976
T4OUTPS0 	EQU 	3
T4OUTPS1 	EQU 	4
T4OUTPS2 	EQU 	5
T4OUTPS3 	EQU 	6
TABLAT 	EQU 	4085
TABLEFOROLEDEXTENDEDFONT2 	EQU 	1082
TABLEFOROLEDFONT2 	EQU 	1082
TABLEGLCDCHARCOL3 	EQU 	2342
TABLEGLCDCHARCOL4 	EQU 	2482
TABLEGLCDCHARCOL5 	EQU 	2622
TABLEGLCDCHARCOL6 	EQU 	2762
TABLEGLCDCHARCOL7 	EQU 	2902
TBLPTR 	EQU 	4086
TBLPTRH 	EQU 	4087
TBLPTRL 	EQU 	4086
TBLPTRU 	EQU 	4088
TEC0 	EQU 	0
TEC1 	EQU 	1
TEC2 	EQU 	2
TEC3 	EQU 	3
TEC4 	EQU 	4
TEC5 	EQU 	5
TEC6 	EQU 	6
TEC7 	EQU 	7
TGEN 	EQU 	4
TMR0 	EQU 	4054
TMR0H 	EQU 	4055
TMR0IE 	EQU 	5
TMR0IF 	EQU 	2
TMR0IP 	EQU 	2
TMR0L 	EQU 	4054
TMR0MD 	EQU 	0
TMR0ON 	EQU 	7
TMR1 	EQU 	4046
TMR1CS0 	EQU 	6
TMR1CS1 	EQU 	7
TMR1GE 	EQU 	7
TMR1GIE 	EQU 	2
TMR1GIF 	EQU 	2
TMR1GIP 	EQU 	2
TMR1H 	EQU 	4047
TMR1IE 	EQU 	0
TMR1IF 	EQU 	0
TMR1IP 	EQU 	0
TMR1L 	EQU 	4046
TMR1MD 	EQU 	1
TMR1ON 	EQU 	0
TMR2 	EQU 	4044
TMR2IE 	EQU 	1
TMR2IF 	EQU 	1
TMR2IP 	EQU 	1
TMR2MD 	EQU 	2
TMR2ON 	EQU 	2
TMR3 	EQU 	4018
TMR3CS0 	EQU 	6
TMR3CS1 	EQU 	7
TMR3GE 	EQU 	7
TMR3GIE 	EQU 	0
TMR3GIF 	EQU 	0
TMR3GIP 	EQU 	0
TMR3H 	EQU 	4019
TMR3IE 	EQU 	1
TMR3IF 	EQU 	1
TMR3IP 	EQU 	1
TMR3L 	EQU 	4018
TMR3MD 	EQU 	3
TMR3ON 	EQU 	0
TMR4 	EQU 	3975
TMR4IE 	EQU 	7
TMR4IF 	EQU 	7
TMR4IP 	EQU 	7
TMR4MD 	EQU 	4
TMR4ON 	EQU 	2
TO 	EQU 	3
TOS 	EQU 	4093
TOSH 	EQU 	4094
TOSL 	EQU 	4093
TOSU 	EQU 	4095
TRIGSEL0 	EQU 	6
TRIGSEL1 	EQU 	7
TRISA 	EQU 	3986
TRISA0 	EQU 	0
TRISA1 	EQU 	1
TRISA2 	EQU 	2
TRISA3 	EQU 	3
TRISA5 	EQU 	5
TRISA6 	EQU 	6
TRISA7 	EQU 	7
TRISB 	EQU 	3987
TRISB0 	EQU 	0
TRISB1 	EQU 	1
TRISB2 	EQU 	2
TRISB3 	EQU 	3
TRISB4 	EQU 	4
TRISB5 	EQU 	5
TRISB6 	EQU 	6
TRISB7 	EQU 	7
TRISC 	EQU 	3988
TRISC0 	EQU 	0
TRISC1 	EQU 	1
TRISC2 	EQU 	2
TRISC3 	EQU 	3
TRISC4 	EQU 	4
TRISC5 	EQU 	5
TRISC6 	EQU 	6
TRISC7 	EQU 	7
TRISD 	EQU 	3989
TRISD0 	EQU 	0
TRISD1 	EQU 	1
TRISD2 	EQU 	2
TRISD3 	EQU 	3
TRISD4 	EQU 	4
TRISD5 	EQU 	5
TRISD6 	EQU 	6
TRISD7 	EQU 	7
TRISE 	EQU 	3990
TRISE0 	EQU 	0
TRISE1 	EQU 	1
TRISE2 	EQU 	2
TRMT 	EQU 	1
TRMT1 	EQU 	1
TRMT2 	EQU 	1
TUN0 	EQU 	0
TUN1 	EQU 	1
TUN2 	EQU 	2
TUN3 	EQU 	3
TUN4 	EQU 	4
TUN5 	EQU 	5
TX1IE 	EQU 	4
TX1IF 	EQU 	4
TX1IP 	EQU 	4
TX2EN 	EQU 	6
TX2IE 	EQU 	4
TX2IF 	EQU 	4
TX2IP 	EQU 	4
TX2SRC 	EQU 	7
TX8_9 	EQU 	6
TX9 	EQU 	6
TX91 	EQU 	6
TX92 	EQU 	6
TX9D 	EQU 	0
TX9D1 	EQU 	0
TX9D2 	EQU 	0
TXABT 	EQU 	6
TXB0CON 	EQU 	3872
TXB0CON_TXABT 	EQU 	6
TXB0CON_TXBIF 	EQU 	7
TXB0CON_TXERR 	EQU 	4
TXB0CON_TXLARB 	EQU 	5
TXB0CON_TXPRI0 	EQU 	0
TXB0CON_TXPRI1 	EQU 	1
TXB0CON_TXREQ 	EQU 	3
TXB0D0 	EQU 	3878
TXB0D00 	EQU 	0
TXB0D01 	EQU 	1
TXB0D02 	EQU 	2
TXB0D03 	EQU 	3
TXB0D04 	EQU 	4
TXB0D05 	EQU 	5
TXB0D06 	EQU 	6
TXB0D07 	EQU 	7
TXB0D1 	EQU 	3879
TXB0D10 	EQU 	0
TXB0D11 	EQU 	1
TXB0D12 	EQU 	2
TXB0D13 	EQU 	3
TXB0D14 	EQU 	4
TXB0D15 	EQU 	5
TXB0D16 	EQU 	6
TXB0D17 	EQU 	7
TXB0D2 	EQU 	3880
TXB0D20 	EQU 	0
TXB0D21 	EQU 	1
TXB0D22 	EQU 	2
TXB0D23 	EQU 	3
TXB0D24 	EQU 	4
TXB0D25 	EQU 	5
TXB0D26 	EQU 	6
TXB0D27 	EQU 	7
TXB0D3 	EQU 	3881
TXB0D30 	EQU 	0
TXB0D31 	EQU 	1
TXB0D32 	EQU 	2
TXB0D33 	EQU 	3
TXB0D34 	EQU 	4
TXB0D35 	EQU 	5
TXB0D36 	EQU 	6
TXB0D37 	EQU 	7
TXB0D4 	EQU 	3882
TXB0D40 	EQU 	0
TXB0D41 	EQU 	1
TXB0D42 	EQU 	2
TXB0D43 	EQU 	3
TXB0D44 	EQU 	4
TXB0D45 	EQU 	5
TXB0D46 	EQU 	6
TXB0D47 	EQU 	7
TXB0D5 	EQU 	3883
TXB0D50 	EQU 	0
TXB0D51 	EQU 	1
TXB0D52 	EQU 	2
TXB0D53 	EQU 	3
TXB0D54 	EQU 	4
TXB0D55 	EQU 	5
TXB0D56 	EQU 	6
TXB0D57 	EQU 	7
TXB0D6 	EQU 	3884
TXB0D60 	EQU 	0
TXB0D61 	EQU 	1
TXB0D62 	EQU 	2
TXB0D63 	EQU 	3
TXB0D64 	EQU 	4
TXB0D65 	EQU 	5
TXB0D66 	EQU 	6
TXB0D67 	EQU 	7
TXB0D7 	EQU 	3885
TXB0D70 	EQU 	0
TXB0D71 	EQU 	1
TXB0D72 	EQU 	2
TXB0D73 	EQU 	3
TXB0D74 	EQU 	4
TXB0D75 	EQU 	5
TXB0D76 	EQU 	6
TXB0D77 	EQU 	7
TXB0DLC 	EQU 	3877
TXB0DLC_DLC0 	EQU 	0
TXB0DLC_DLC1 	EQU 	1
TXB0DLC_DLC2 	EQU 	2
TXB0DLC_DLC3 	EQU 	3
TXB0DLC_TXRTR 	EQU 	6
TXB0EIDH 	EQU 	3875
TXB0EIDH_EID10 	EQU 	2
TXB0EIDH_EID11 	EQU 	3
TXB0EIDH_EID12 	EQU 	4
TXB0EIDH_EID13 	EQU 	5
TXB0EIDH_EID14 	EQU 	6
TXB0EIDH_EID15 	EQU 	7
TXB0EIDH_EID8 	EQU 	0
TXB0EIDH_EID9 	EQU 	1
TXB0EIDL 	EQU 	3876
TXB0EIDL_EID0 	EQU 	0
TXB0EIDL_EID1 	EQU 	1
TXB0EIDL_EID2 	EQU 	2
TXB0EIDL_EID3 	EQU 	3
TXB0EIDL_EID4 	EQU 	4
TXB0EIDL_EID5 	EQU 	5
TXB0EIDL_EID6 	EQU 	6
TXB0EIDL_EID7 	EQU 	7
TXB0IE 	EQU 	2
TXB0IF 	EQU 	2
TXB0IP 	EQU 	2
TXB0SIDH 	EQU 	3873
TXB0SIDH_SID10 	EQU 	7
TXB0SIDH_SID3 	EQU 	0
TXB0SIDH_SID4 	EQU 	1
TXB0SIDH_SID5 	EQU 	2
TXB0SIDH_SID6 	EQU 	3
TXB0SIDH_SID7 	EQU 	4
TXB0SIDH_SID8 	EQU 	5
TXB0SIDH_SID9 	EQU 	6
TXB0SIDL 	EQU 	3874
TXB0SIDL_EID16 	EQU 	0
TXB0SIDL_EID17 	EQU 	1
TXB0SIDL_EXIDE 	EQU 	3
TXB0SIDL_SID0 	EQU 	5
TXB0SIDL_SID1 	EQU 	6
TXB0SIDL_SID2 	EQU 	7
TXB0SIDL_SRR 	EQU 	4
TXB1CON 	EQU 	3856
TXB1CON_TXABT 	EQU 	6
TXB1CON_TXBIF 	EQU 	7
TXB1CON_TXERR 	EQU 	4
TXB1CON_TXLARB 	EQU 	5
TXB1CON_TXPRI0 	EQU 	0
TXB1CON_TXPRI1 	EQU 	1
TXB1CON_TXREQ 	EQU 	3
TXB1D0 	EQU 	3862
TXB1D00 	EQU 	0
TXB1D01 	EQU 	1
TXB1D02 	EQU 	2
TXB1D03 	EQU 	3
TXB1D04 	EQU 	4
TXB1D05 	EQU 	5
TXB1D06 	EQU 	6
TXB1D07 	EQU 	7
TXB1D1 	EQU 	3863
TXB1D10 	EQU 	0
TXB1D11 	EQU 	1
TXB1D12 	EQU 	2
TXB1D13 	EQU 	3
TXB1D14 	EQU 	4
TXB1D15 	EQU 	5
TXB1D16 	EQU 	6
TXB1D17 	EQU 	7
TXB1D2 	EQU 	3864
TXB1D20 	EQU 	0
TXB1D21 	EQU 	1
TXB1D22 	EQU 	2
TXB1D23 	EQU 	3
TXB1D24 	EQU 	4
TXB1D25 	EQU 	5
TXB1D26 	EQU 	6
TXB1D27 	EQU 	7
TXB1D3 	EQU 	3865
TXB1D30 	EQU 	0
TXB1D31 	EQU 	1
TXB1D32 	EQU 	2
TXB1D33 	EQU 	3
TXB1D34 	EQU 	4
TXB1D35 	EQU 	5
TXB1D36 	EQU 	6
TXB1D37 	EQU 	7
TXB1D4 	EQU 	3866
TXB1D40 	EQU 	0
TXB1D41 	EQU 	1
TXB1D42 	EQU 	2
TXB1D43 	EQU 	3
TXB1D44 	EQU 	4
TXB1D45 	EQU 	5
TXB1D46 	EQU 	6
TXB1D47 	EQU 	7
TXB1D5 	EQU 	3867
TXB1D50 	EQU 	0
TXB1D51 	EQU 	1
TXB1D52 	EQU 	2
TXB1D53 	EQU 	3
TXB1D54 	EQU 	4
TXB1D55 	EQU 	5
TXB1D56 	EQU 	6
TXB1D57 	EQU 	7
TXB1D6 	EQU 	3868
TXB1D60 	EQU 	0
TXB1D61 	EQU 	1
TXB1D62 	EQU 	2
TXB1D63 	EQU 	3
TXB1D64 	EQU 	4
TXB1D65 	EQU 	5
TXB1D66 	EQU 	6
TXB1D67 	EQU 	7
TXB1D7 	EQU 	3869
TXB1D70 	EQU 	0
TXB1D71 	EQU 	1
TXB1D72 	EQU 	2
TXB1D73 	EQU 	3
TXB1D74 	EQU 	4
TXB1D75 	EQU 	5
TXB1D76 	EQU 	6
TXB1D77 	EQU 	7
TXB1DLC 	EQU 	3861
TXB1DLC_DLC0 	EQU 	0
TXB1DLC_DLC1 	EQU 	1
TXB1DLC_DLC2 	EQU 	2
TXB1DLC_DLC3 	EQU 	3
TXB1DLC_TXRTR 	EQU 	6
TXB1EIDH 	EQU 	3859
TXB1EIDH_EID10 	EQU 	2
TXB1EIDH_EID11 	EQU 	3
TXB1EIDH_EID12 	EQU 	4
TXB1EIDH_EID13 	EQU 	5
TXB1EIDH_EID14 	EQU 	6
TXB1EIDH_EID15 	EQU 	7
TXB1EIDH_EID8 	EQU 	0
TXB1EIDH_EID9 	EQU 	1
TXB1EIDL 	EQU 	3860
TXB1EIDL_EID0 	EQU 	0
TXB1EIDL_EID1 	EQU 	1
TXB1EIDL_EID2 	EQU 	2
TXB1EIDL_EID3 	EQU 	3
TXB1EIDL_EID4 	EQU 	4
TXB1EIDL_EID5 	EQU 	5
TXB1EIDL_EID6 	EQU 	6
TXB1EIDL_EID7 	EQU 	7
TXB1IE 	EQU 	3
TXB1IF 	EQU 	3
TXB1IP 	EQU 	3
TXB1SIDH 	EQU 	3857
TXB1SIDH_SID10 	EQU 	7
TXB1SIDH_SID3 	EQU 	0
TXB1SIDH_SID4 	EQU 	1
TXB1SIDH_SID5 	EQU 	2
TXB1SIDH_SID6 	EQU 	3
TXB1SIDH_SID7 	EQU 	4
TXB1SIDH_SID8 	EQU 	5
TXB1SIDH_SID9 	EQU 	6
TXB1SIDL 	EQU 	3858
TXB1SIDL_EID16 	EQU 	0
TXB1SIDL_EID17 	EQU 	1
TXB1SIDL_EXIDE 	EQU 	3
TXB1SIDL_SID0 	EQU 	5
TXB1SIDL_SID1 	EQU 	6
TXB1SIDL_SID2 	EQU 	7
TXB1SIDL_SRR 	EQU 	4
TXB2CON 	EQU 	3840
TXB2CON_TXABT 	EQU 	6
TXB2CON_TXBIF 	EQU 	7
TXB2CON_TXERR 	EQU 	4
TXB2CON_TXLARB 	EQU 	5
TXB2CON_TXPRI0 	EQU 	0
TXB2CON_TXPRI1 	EQU 	1
TXB2CON_TXREQ 	EQU 	3
TXB2D0 	EQU 	3846
TXB2D00 	EQU 	0
TXB2D01 	EQU 	1
TXB2D02 	EQU 	2
TXB2D03 	EQU 	3
TXB2D04 	EQU 	4
TXB2D05 	EQU 	5
TXB2D06 	EQU 	6
TXB2D07 	EQU 	7
TXB2D1 	EQU 	3847
TXB2D10 	EQU 	0
TXB2D11 	EQU 	1
TXB2D12 	EQU 	2
TXB2D13 	EQU 	3
TXB2D14 	EQU 	4
TXB2D15 	EQU 	5
TXB2D16 	EQU 	6
TXB2D17 	EQU 	7
TXB2D2 	EQU 	3848
TXB2D20 	EQU 	0
TXB2D21 	EQU 	1
TXB2D22 	EQU 	2
TXB2D23 	EQU 	3
TXB2D24 	EQU 	4
TXB2D25 	EQU 	5
TXB2D26 	EQU 	6
TXB2D27 	EQU 	7
TXB2D3 	EQU 	3849
TXB2D30 	EQU 	0
TXB2D31 	EQU 	1
TXB2D32 	EQU 	2
TXB2D33 	EQU 	3
TXB2D34 	EQU 	4
TXB2D35 	EQU 	5
TXB2D36 	EQU 	6
TXB2D37 	EQU 	7
TXB2D4 	EQU 	3850
TXB2D40 	EQU 	0
TXB2D41 	EQU 	1
TXB2D42 	EQU 	2
TXB2D43 	EQU 	3
TXB2D44 	EQU 	4
TXB2D45 	EQU 	5
TXB2D46 	EQU 	6
TXB2D47 	EQU 	7
TXB2D5 	EQU 	3851
TXB2D50 	EQU 	0
TXB2D51 	EQU 	1
TXB2D52 	EQU 	2
TXB2D53 	EQU 	3
TXB2D54 	EQU 	4
TXB2D55 	EQU 	5
TXB2D56 	EQU 	6
TXB2D57 	EQU 	7
TXB2D6 	EQU 	3852
TXB2D60 	EQU 	0
TXB2D61 	EQU 	1
TXB2D62 	EQU 	2
TXB2D63 	EQU 	3
TXB2D64 	EQU 	4
TXB2D65 	EQU 	5
TXB2D66 	EQU 	6
TXB2D67 	EQU 	7
TXB2D7 	EQU 	3853
TXB2D70 	EQU 	0
TXB2D71 	EQU 	1
TXB2D72 	EQU 	2
TXB2D73 	EQU 	3
TXB2D74 	EQU 	4
TXB2D75 	EQU 	5
TXB2D76 	EQU 	6
TXB2D77 	EQU 	7
TXB2DLC 	EQU 	3845
TXB2DLC_DLC0 	EQU 	0
TXB2DLC_DLC1 	EQU 	1
TXB2DLC_DLC2 	EQU 	2
TXB2DLC_DLC3 	EQU 	3
TXB2DLC_TXRTR 	EQU 	6
TXB2EIDH 	EQU 	3843
TXB2EIDH_EID10 	EQU 	2
TXB2EIDH_EID11 	EQU 	3
TXB2EIDH_EID12 	EQU 	4
TXB2EIDH_EID13 	EQU 	5
TXB2EIDH_EID14 	EQU 	6
TXB2EIDH_EID15 	EQU 	7
TXB2EIDH_EID8 	EQU 	0
TXB2EIDH_EID9 	EQU 	1
TXB2EIDL 	EQU 	3844
TXB2EIDL_EID0 	EQU 	0
TXB2EIDL_EID1 	EQU 	1
TXB2EIDL_EID2 	EQU 	2
TXB2EIDL_EID3 	EQU 	3
TXB2EIDL_EID4 	EQU 	4
TXB2EIDL_EID5 	EQU 	5
TXB2EIDL_EID6 	EQU 	6
TXB2EIDL_EID7 	EQU 	7
TXB2IE 	EQU 	4
TXB2IF 	EQU 	4
TXB2IP 	EQU 	4
TXB2SIDH 	EQU 	3841
TXB2SIDH_SID10 	EQU 	7
TXB2SIDH_SID3 	EQU 	0
TXB2SIDH_SID4 	EQU 	1
TXB2SIDH_SID5 	EQU 	2
TXB2SIDH_SID6 	EQU 	3
TXB2SIDH_SID7 	EQU 	4
TXB2SIDH_SID8 	EQU 	5
TXB2SIDH_SID9 	EQU 	6
TXB2SIDL 	EQU 	3842
TXB2SIDL_EID16 	EQU 	0
TXB2SIDL_EID17 	EQU 	1
TXB2SIDL_EXIDE 	EQU 	3
TXB2SIDL_SID0 	EQU 	5
TXB2SIDL_SID1 	EQU 	6
TXB2SIDL_SID2 	EQU 	7
TXB2SIDL_SRR 	EQU 	4
TXBIE 	EQU 	3711
TXBIF 	EQU 	7
TXBNIE 	EQU 	4
TXBNIF 	EQU 	4
TXBNIP 	EQU 	4
TXBO 	EQU 	5
TXBP 	EQU 	4
TXCKP 	EQU 	4
TXD8 	EQU 	0
TXEN 	EQU 	5
TXEN1 	EQU 	5
TXEN2 	EQU 	5
TXERR 	EQU 	4
TXERRCNT 	EQU 	3650
TXIE 	EQU 	4
TXIF 	EQU 	4
TXIP 	EQU 	4
TXLARB 	EQU 	5
TXPRI0 	EQU 	0
TXPRI1 	EQU 	1
TXREG 	EQU 	4013
TXREG1 	EQU 	4013
TXREG2 	EQU 	3961
TXREQ 	EQU 	3
TXRTR 	EQU 	6
TXSTA 	EQU 	4012
TXSTA1 	EQU 	4012
TXSTA2 	EQU 	4026
TXSTA2_BRGH 	EQU 	2
TXSTA2_CSRC 	EQU 	7
TXSTA2_SENDB 	EQU 	3
TXSTA2_SYNC 	EQU 	4
TXSTA2_TRMT 	EQU 	1
TXSTA2_TX9 	EQU 	6
TXSTA2_TX9D 	EQU 	0
TXSTA2_TXEN 	EQU 	5
TXSTA_BRGH 	EQU 	2
TXSTA_BRGH1 	EQU 	2
TXSTA_CSRC 	EQU 	7
TXSTA_CSRC1 	EQU 	7
TXSTA_NOT_TX8 	EQU 	6
TXSTA_SENDB 	EQU 	3
TXSTA_SENDB1 	EQU 	3
TXSTA_SYNC 	EQU 	4
TXSTA_SYNC1 	EQU 	4
TXSTA_TRMT 	EQU 	1
TXSTA_TRMT1 	EQU 	1
TXSTA_TX8_9 	EQU 	6
TXSTA_TX9 	EQU 	6
TXSTA_TX91 	EQU 	6
TXSTA_TX9D 	EQU 	0
TXSTA_TX9D1 	EQU 	0
TXSTA_TXD8 	EQU 	0
TXSTA_TXEN 	EQU 	5
TXSTA_TXEN1 	EQU 	5
TXWARN 	EQU 	2
U1OD 	EQU 	0
U2OD 	EQU 	1
UA 	EQU 	1
UART1MD 	EQU 	1
UART2MD 	EQU 	2
ULPEN 	EQU 	2
ULPLVL 	EQU 	5
ULPSINK 	EQU 	1
VCFG0 	EQU 	4
VCFG1 	EQU 	5
VDIRMAG 	EQU 	7
VNCFG 	EQU 	3
W 	EQU 	0
WAKDIS 	EQU 	7
WAKFIL 	EQU 	6
WAKIE 	EQU 	6
WAKIF 	EQU 	6
WAKIP 	EQU 	6
WCOL 	EQU 	7
WDTCON 	EQU 	4049
WIN0 	EQU 	1
WIN0_FP1 	EQU 	1
WIN1 	EQU 	2
WIN1_FP2 	EQU 	2
WIN2 	EQU 	3
WIN2_FP3 	EQU 	3
WORDNUMBER 	EQU 	155
WORDNUMBER_H 	EQU 	156
WPUB 	EQU 	3931
WPUB0 	EQU 	0
WPUB1 	EQU 	1
WPUB2 	EQU 	2
WPUB3 	EQU 	3
WPUB4 	EQU 	4
WPUB5 	EQU 	5
WPUB6 	EQU 	6
WPUB7 	EQU 	7
WR 	EQU 	1
WREG 	EQU 	4072
WREN 	EQU 	2
WRERR 	EQU 	3
WUE 	EQU 	1
XCHAR 	EQU 	157
XOFFSET 	EQU 	158
XOFFSET_H 	EQU 	159
XRADIUS 	EQU 	160
XRADIUS_H 	EQU 	161
YCALC1 	EQU 	162
YCALC1_H 	EQU 	163
YCALC2 	EQU 	164
YCALC2_H 	EQU 	165
YOFFSET 	EQU 	166
YOFFSET_H 	EQU 	167
YORDINATE 	EQU 	168
Z 	EQU 	2

Code:
Loc	Obj Code	Original Assembly




























































































































































































































000000	EF06 F000	GOTO BASPROGRAMSTART

000008	0010	RETFIE



		BASPROGRAMSTART
00000C	EC53 F008	CALL INITSYS
000010	EC72 F008	CALL INITUSART
000014	EC1F F008	CALL INITGLCD_NT7108C

000018	EE1D F0D7	LFSR 1,SYSSTRINGPARAM1
00001C	0EC6	MOVLW LOW STRINGTABLE1
00001E	6EF6	MOVWF TBLPTRL,ACCESS
000020	0E18	MOVLW HIGH STRINGTABLE1
000022	6EF7	MOVWF TBLPTRH,ACCESS
000024	EC50 F00C	CALL SYSREADSTRING
000028	0ED7	MOVLW LOW SYSSTRINGPARAM1
00002A	6F86	MOVWF SYSPRINTDATAHANDLER,BANKED
00002C	0E0D	MOVLW HIGH SYSSTRINGPARAM1
00002E	6F87	MOVWF SYSPRINTDATAHANDLER_H,BANKED
000030	0E01	MOVLW 1
000032	6F1C	MOVWF COMPORT,BANKED
000034	ECED F007	CALL HSERPRINTSTRINGCRLF
000038	6B0F	CLRF CCOUNT,BANKED
00003A	0EFA	MOVLW 250
00003C	6F63	MOVWF LONGNUMBER,BANKED
00003E	6964	SETF LONGNUMBER_H,BANKED
000040	6965	SETF LONGNUMBER_U,BANKED
000042	6966	SETF LONGNUMBER_E,BANKED
000044	6B9B	CLRF WORDNUMBER,BANKED
000046	6B9C	CLRF WORDNUMBER_H,BANKED
000048	6B0E	CLRF BYTENUMBER,BANKED
00004A	6B68	CLRF PRINTLOCX,BANKED
00004C	6B69	CLRF PRINTLOCX_H,BANKED
00004E	6B6A	CLRF PRINTLOCY,BANKED
000050	6B6B	CLRF PRINTLOCY_H,BANKED
000052	EE1D F0D7	LFSR 1,SYSSTRINGPARAM1
000056	0ECC	MOVLW LOW STRINGTABLE2
000058	6EF6	MOVWF TBLPTRL,ACCESS
00005A	0E18	MOVLW HIGH STRINGTABLE2
00005C	6EF7	MOVWF TBLPTRH,ACCESS
00005E	EC50 F00C	CALL SYSREADSTRING
000062	0ED7	MOVLW LOW SYSSTRINGPARAM1
000064	6F77	MOVWF SYSLCDPRINTDATAHANDLER,BANKED
000066	0E0D	MOVLW HIGH SYSSTRINGPARAM1
000068	6F78	MOVWF SYSLCDPRINTDATAHANDLER_H,BANKED
00006A	EC05 F007	CALL GLCDPRINT3
00006E	6B68	CLRF PRINTLOCX,BANKED
000070	6B69	CLRF PRINTLOCX_H,BANKED
000072	0E10	MOVLW 16
000074	6F6A	MOVWF PRINTLOCY,BANKED
000076	6B6B	CLRF PRINTLOCY_H,BANKED
000078	EE1D F0D7	LFSR 1,SYSSTRINGPARAM1
00007C	0EE2	MOVLW LOW STRINGTABLE3
00007E	6EF6	MOVWF TBLPTRL,ACCESS
000080	0E18	MOVLW HIGH STRINGTABLE3
000082	6EF7	MOVWF TBLPTRH,ACCESS
000084	EC50 F00C	CALL SYSREADSTRING
000088	0ED7	MOVLW LOW SYSSTRINGPARAM1
00008A	6F77	MOVWF SYSLCDPRINTDATAHANDLER,BANKED
00008C	0E0D	MOVLW HIGH SYSSTRINGPARAM1
00008E	6F78	MOVWF SYSLCDPRINTDATAHANDLER_H,BANKED
000090	EC05 F007	CALL GLCDPRINT3
000094	0E03	MOVLW 3
000096	6E04	MOVWF SYSWAITTEMPS,ACCESS
000098	DB39	RCALL DELAY_S
00009A	ECE4 F005	CALL GLCDCLS_NT7108C
00009E	0E02	MOVLW 2
0000A0	6F68	MOVWF PRINTLOCX,BANKED
0000A2	6B69	CLRF PRINTLOCX_H,BANKED
0000A4	0E01	MOVLW 1
0000A6	6F6A	MOVWF PRINTLOCY,BANKED
0000A8	6B6B	CLRF PRINTLOCY_H,BANKED
0000AA	EE1D F0D7	LFSR 1,SYSSTRINGPARAM1
0000AE	0EF0	MOVLW LOW STRINGTABLE4
0000B0	6EF6	MOVWF TBLPTRL,ACCESS
0000B2	0E18	MOVLW HIGH STRINGTABLE4
0000B4	6EF7	MOVWF TBLPTRH,ACCESS
0000B6	EC50 F00C	CALL SYSREADSTRING
0000BA	0ED7	MOVLW LOW SYSSTRINGPARAM1
0000BC	6F77	MOVWF SYSLCDPRINTDATAHANDLER,BANKED
0000BE	0E0D	MOVLW HIGH SYSSTRINGPARAM1
0000C0	6F78	MOVWF SYSLCDPRINTDATAHANDLER_H,BANKED
0000C2	EC05 F007	CALL GLCDPRINT3
0000C6	0E40	MOVLW 64
0000C8	6F68	MOVWF PRINTLOCX,BANKED
0000CA	6B69	CLRF PRINTLOCX_H,BANKED
0000CC	0E01	MOVLW 1
0000CE	6F6A	MOVWF PRINTLOCY,BANKED
0000D0	6B6B	CLRF PRINTLOCY_H,BANKED
0000D2	EE1D F0D7	LFSR 1,SYSSTRINGPARAM1
0000D6	0EFA	MOVLW LOW STRINGTABLE5
0000D8	6EF6	MOVWF TBLPTRL,ACCESS
0000DA	0E18	MOVLW HIGH STRINGTABLE5
0000DC	6EF7	MOVWF TBLPTRH,ACCESS
0000DE	EC50 F00C	CALL SYSREADSTRING
0000E2	0ED7	MOVLW LOW SYSSTRINGPARAM1
0000E4	6F77	MOVWF SYSLCDPRINTDATAHANDLER,BANKED
0000E6	0E0D	MOVLW HIGH SYSSTRINGPARAM1
0000E8	6F78	MOVWF SYSLCDPRINTDATAHANDLER_H,BANKED
0000EA	EC05 F007	CALL GLCDPRINT3
0000EE	0E58	MOVLW 88
0000F0	6F68	MOVWF PRINTLOCX,BANKED
0000F2	6B69	CLRF PRINTLOCX_H,BANKED
0000F4	0E01	MOVLW 1
0000F6	6F6A	MOVWF PRINTLOCY,BANKED
0000F8	6B6B	CLRF PRINTLOCY_H,BANKED
0000FA	0E40	MOVLW 64
0000FC	6F47	MOVWF LCDVALUE,BANKED
0000FE	6B48	CLRF LCDVALUE_H,BANKED
000100	6B49	CLRF LCDVALUE_U,BANKED
000102	6B4A	CLRF LCDVALUE_E,BANKED
000104	EC42 F007	CALL GLCDPRINT5
000108	0E64	MOVLW 100
00010A	6F68	MOVWF PRINTLOCX,BANKED
00010C	6B69	CLRF PRINTLOCX_H,BANKED
00010E	0E01	MOVLW 1
000110	6F6A	MOVWF PRINTLOCY,BANKED
000112	6B6B	CLRF PRINTLOCY_H,BANKED
000114	EE1D F0D7	LFSR 1,SYSSTRINGPARAM1
000118	0E00	MOVLW LOW STRINGTABLE6
00011A	6EF6	MOVWF TBLPTRL,ACCESS
00011C	0E19	MOVLW HIGH STRINGTABLE6
00011E	6EF7	MOVWF TBLPTRH,ACCESS
000120	EC50 F00C	CALL SYSREADSTRING
000124	0ED7	MOVLW LOW SYSSTRINGPARAM1
000126	6F77	MOVWF SYSLCDPRINTDATAHANDLER,BANKED
000128	0E0D	MOVLW HIGH SYSSTRINGPARAM1
00012A	6F78	MOVWF SYSLCDPRINTDATAHANDLER_H,BANKED
00012C	EC05 F007	CALL GLCDPRINT3
000130	0E02	MOVLW 2
000132	6F70	MOVWF STRINGLOCX,BANKED
000134	0E0A	MOVLW 10
000136	6F16	MOVWF CHARLOCY,BANKED
000138	EE1D F0D7	LFSR 1,SYSSTRINGPARAM1
00013C	0E04	MOVLW LOW STRINGTABLE7
00013E	6EF6	MOVWF TBLPTRL,ACCESS
000140	0E19	MOVLW HIGH STRINGTABLE7
000142	6EF7	MOVWF TBLPTRH,ACCESS
000144	EC50 F00C	CALL SYSREADSTRING
000148	0ED7	MOVLW LOW SYSSTRINGPARAM1
00014A	6F75	MOVWF SYSCHARSHANDLER,BANKED
00014C	0E0D	MOVLW HIGH SYSSTRINGPARAM1
00014E	6F76	MOVWF SYSCHARSHANDLER_H,BANKED
000150	C036 F04B	MOVFF GLCDFOREGROUND,LINECOLOUR
000154	C037 F04C	MOVFF GLCDFOREGROUND_H,LINECOLOUR_H
000158	ECD2 F006	CALL GLCDDRAWSTRING
00015C	6B5B	CLRF LINEX1,BANKED
00015E	6B5C	CLRF LINEX1_H,BANKED
000160	6B5F	CLRF LINEY1,BANKED
000162	6B60	CLRF LINEY1_H,BANKED
000164	0E7F	MOVLW 127
000166	6F5D	MOVWF LINEX2,BANKED
000168	6B5E	CLRF LINEX2_H,BANKED
00016A	0E3F	MOVLW 63
00016C	6F61	MOVWF LINEY2,BANKED
00016E	6B62	CLRF LINEY2_H,BANKED
000170	C036 F04B	MOVFF GLCDFOREGROUND,LINECOLOUR
000174	C037 F04C	MOVFF GLCDFOREGROUND_H,LINECOLOUR_H
000178	D962	RCALL BOX
00017A	0E7B	MOVLW 123
00017C	6F5B	MOVWF LINEX1,BANKED
00017E	6B5C	CLRF LINEX1_H,BANKED
000180	0E3B	MOVLW 59
000182	6F5F	MOVWF LINEY1,BANKED
000184	6B60	CLRF LINEY1_H,BANKED
000186	0E7F	MOVLW 127
000188	6F5D	MOVWF LINEX2,BANKED
00018A	6B5E	CLRF LINEX2_H,BANKED
00018C	0E3F	MOVLW 63
00018E	6F61	MOVWF LINEY2,BANKED
000190	6B62	CLRF LINEY2_H,BANKED
000192	C036 F04B	MOVFF GLCDFOREGROUND,LINECOLOUR
000196	C037 F04C	MOVFF GLCDFOREGROUND_H,LINECOLOUR_H
00019A	D951	RCALL BOX
00019C	0E2C	MOVLW 44
00019E	6F9E	MOVWF XOFFSET,BANKED
0001A0	6B9F	CLRF XOFFSET_H,BANKED
0001A2	0E29	MOVLW 41
0001A4	6FA6	MOVWF YOFFSET,BANKED
0001A6	6BA7	CLRF YOFFSET_H,BANKED
0001A8	0E0F	MOVLW 15
0001AA	6F44	MOVWF INXRADIUS,BANKED
0001AC	6B45	CLRF INXRADIUS_H,BANKED
0001AE	C036 F04B	MOVFF GLCDFOREGROUND,LINECOLOUR
0001B2	C037 F04C	MOVFF GLCDFOREGROUND_H,LINECOLOUR_H
0001B6	C042 F0A8	MOVFF GLCD_YORDINATE,YORDINATE
0001BA	D9DC	RCALL CIRCLE
0001BC	0E40	MOVLW 64
0001BE	6F5B	MOVWF LINEX1,BANKED
0001C0	6B5C	CLRF LINEX1_H,BANKED
0001C2	0E1F	MOVLW 31
0001C4	6F5F	MOVWF LINEY1,BANKED
0001C6	6B60	CLRF LINEY1_H,BANKED
0001C8	6B5D	CLRF LINEX2,BANKED
0001CA	6B5E	CLRF LINEX2_H,BANKED
0001CC	0E1F	MOVLW 31
0001CE	6F61	MOVWF LINEY2,BANKED
0001D0	6B62	CLRF LINEY2_H,BANKED
0001D2	C036 F04B	MOVFF GLCDFOREGROUND,LINECOLOUR
0001D6	C037 F04C	MOVFF GLCDFOREGROUND_H,LINECOLOUR_H
0001DA	EC7F F008	CALL LINE
		SYSDOLOOP_S1
0001DE	0E1F	MOVLW 31
0001E0	6F0F	MOVWF CCOUNT,BANKED
		SYSFORLOOP1
0001E2	2B0F	INCF CCOUNT,F,BANKED
0001E4	0E40	MOVLW 64
0001E6	6F68	MOVWF PRINTLOCX,BANKED
0001E8	6B69	CLRF PRINTLOCX_H,BANKED
0001EA	0E24	MOVLW 36
0001EC	6F6A	MOVWF PRINTLOCY,BANKED
0001EE	6B6B	CLRF PRINTLOCY_H,BANKED
0001F0	C066 F099	MOVFF LONGNUMBER_E,SYSVALTEMP
0001F4	ECC7 F007	CALL FN_HEX
0001F8	0EC2	MOVLW LOW HEX
0001FA	6F77	MOVWF SYSLCDPRINTDATAHANDLER,BANKED
0001FC	0E0D	MOVLW HIGH HEX
0001FE	6F78	MOVWF SYSLCDPRINTDATAHANDLER_H,BANKED
000200	EC05 F007	CALL GLCDPRINT3
000204	0E4C	MOVLW 76
000206	6F68	MOVWF PRINTLOCX,BANKED
000208	6B69	CLRF PRINTLOCX_H,BANKED
00020A	0E24	MOVLW 36
00020C	6F6A	MOVWF PRINTLOCY,BANKED
00020E	6B6B	CLRF PRINTLOCY_H,BANKED
000210	C065 F099	MOVFF LONGNUMBER_U,SYSVALTEMP
000214	ECC7 F007	CALL FN_HEX
000218	0EC2	MOVLW LOW HEX
00021A	6F77	MOVWF SYSLCDPRINTDATAHANDLER,BANKED
00021C	0E0D	MOVLW HIGH HEX
00021E	6F78	MOVWF SYSLCDPRINTDATAHANDLER_H,BANKED
000220	EC05 F007	CALL GLCDPRINT3
000224	0E58	MOVLW 88
000226	6F68	MOVWF PRINTLOCX,BANKED
000228	6B69	CLRF PRINTLOCX_H,BANKED
00022A	0E24	MOVLW 36
00022C	6F6A	MOVWF PRINTLOCY,BANKED
00022E	6B6B	CLRF PRINTLOCY_H,BANKED
000230	C064 F099	MOVFF LONGNUMBER_H,SYSVALTEMP
000234	ECC7 F007	CALL FN_HEX
000238	0EC2	MOVLW LOW HEX
00023A	6F77	MOVWF SYSLCDPRINTDATAHANDLER,BANKED
00023C	0E0D	MOVLW HIGH HEX
00023E	6F78	MOVWF SYSLCDPRINTDATAHANDLER_H,BANKED
000240	EC05 F007	CALL GLCDPRINT3
000244	0E64	MOVLW 100
000246	6F68	MOVWF PRINTLOCX,BANKED
000248	6B69	CLRF PRINTLOCX_H,BANKED
00024A	0E24	MOVLW 36
00024C	6F6A	MOVWF PRINTLOCY,BANKED
00024E	6B6B	CLRF PRINTLOCY_H,BANKED
000250	C063 F099	MOVFF LONGNUMBER,SYSVALTEMP
000254	ECC7 F007	CALL FN_HEX
000258	0EC2	MOVLW LOW HEX
00025A	6F77	MOVWF SYSLCDPRINTDATAHANDLER,BANKED
00025C	0E0D	MOVLW HIGH HEX
00025E	6F78	MOVWF SYSLCDPRINTDATAHANDLER_H,BANKED
000260	EC05 F007	CALL GLCDPRINT3
000264	0E70	MOVLW 112
000266	6F68	MOVWF PRINTLOCX,BANKED
000268	6B69	CLRF PRINTLOCX_H,BANKED
00026A	0E24	MOVLW 36
00026C	6F6A	MOVWF PRINTLOCY,BANKED
00026E	6B6B	CLRF PRINTLOCY_H,BANKED
000270	EE1D F0D7	LFSR 1,SYSSTRINGPARAM1
000274	0E0C	MOVLW LOW STRINGTABLE8
000276	6EF6	MOVWF TBLPTRL,ACCESS
000278	0E19	MOVLW HIGH STRINGTABLE8
00027A	6EF7	MOVWF TBLPTRH,ACCESS
00027C	EC50 F00C	CALL SYSREADSTRING
000280	0ED7	MOVLW LOW SYSSTRINGPARAM1
000282	6F77	MOVWF SYSLCDPRINTDATAHANDLER,BANKED
000284	0E0D	MOVLW HIGH SYSSTRINGPARAM1
000286	6F78	MOVWF SYSLCDPRINTDATAHANDLER_H,BANKED
000288	EC05 F007	CALL GLCDPRINT3
00028C	0E40	MOVLW 64
00028E	6F68	MOVWF PRINTLOCX,BANKED
000290	6B69	CLRF PRINTLOCX_H,BANKED
000292	0E2C	MOVLW 44
000294	6F6A	MOVWF PRINTLOCY,BANKED
000296	6B6B	CLRF PRINTLOCY_H,BANKED
000298	C09B F099	MOVFF WORDNUMBER,SYSVALTEMP
00029C	C09C F09A	MOVFF WORDNUMBER_H,SYSVALTEMP_H
0002A0	EC5B F00A	CALL FN_STR
0002A4	0EC6	MOVLW LOW STR
0002A6	6F8F	MOVWF SYSSYSINSTRINGHANDLER,BANKED
0002A8	0E0D	MOVLW HIGH STR
0002AA	6F90	MOVWF SYSSYSINSTRINGHANDLER_H,BANKED
0002AC	0E05	MOVLW 5
0002AE	6F8C	MOVWF SYSSTRLEN,BANKED
0002B0	EE1D F0D7	LFSR 1,SYSSTRINGPARAM1
0002B4	0E0E	MOVLW LOW STRINGTABLE38
0002B6	6EF6	MOVWF TBLPTRL,ACCESS
0002B8	0E19	MOVLW HIGH STRINGTABLE38
0002BA	6EF7	MOVWF TBLPTRH,ACCESS
0002BC	EC50 F00C	CALL SYSREADSTRING
0002C0	0ED7	MOVLW LOW SYSSTRINGPARAM1
0002C2	6F8D	MOVWF SYSSYSINSTRING3HANDLER,BANKED
0002C4	0E0D	MOVLW HIGH SYSSTRINGPARAM1
0002C6	6F8E	MOVWF SYSSYSINSTRING3HANDLER_H,BANKED
0002C8	EC81 F009	CALL FN_PAD
0002CC	0EEC	MOVLW LOW PAD
0002CE	6F77	MOVWF SYSLCDPRINTDATAHANDLER,BANKED
0002D0	0E0D	MOVLW HIGH PAD
0002D2	6F78	MOVWF SYSLCDPRINTDATAHANDLER_H,BANKED
0002D4	EC05 F007	CALL GLCDPRINT3
0002D8	0E40	MOVLW 64
0002DA	6F68	MOVWF PRINTLOCX,BANKED
0002DC	6B69	CLRF PRINTLOCX_H,BANKED
0002DE	0E34	MOVLW 52
0002E0	6F6A	MOVWF PRINTLOCY,BANKED
0002E2	6B6B	CLRF PRINTLOCY_H,BANKED
0002E4	C00E F099	MOVFF BYTENUMBER,SYSVALTEMP
0002E8	6B9A	CLRF SYSVALTEMP_H,BANKED
0002EA	EC5B F00A	CALL FN_STR
0002EE	0EC6	MOVLW LOW STR
0002F0	6F8F	MOVWF SYSSYSINSTRINGHANDLER,BANKED
0002F2	0E0D	MOVLW HIGH STR
0002F4	6F90	MOVWF SYSSYSINSTRINGHANDLER_H,BANKED
0002F6	0E03	MOVLW 3
0002F8	6F8C	MOVWF SYSSTRLEN,BANKED
0002FA	EE1D F0D7	LFSR 1,SYSSTRINGPARAM1
0002FE	0E0E	MOVLW LOW STRINGTABLE38
000300	6EF6	MOVWF TBLPTRL,ACCESS
000302	0E19	MOVLW HIGH STRINGTABLE38
000304	6EF7	MOVWF TBLPTRH,ACCESS
000306	EC50 F00C	CALL SYSREADSTRING
00030A	0ED7	MOVLW LOW SYSSTRINGPARAM1
00030C	6F8D	MOVWF SYSSYSINSTRING3HANDLER,BANKED
00030E	0E0D	MOVLW HIGH SYSSTRINGPARAM1
000310	6F8E	MOVWF SYSSYSINSTRING3HANDLER_H,BANKED
000312	EC81 F009	CALL FN_PAD
000316	0EEC	MOVLW LOW PAD
000318	6F77	MOVWF SYSLCDPRINTDATAHANDLER,BANKED
00031A	0E0D	MOVLW HIGH PAD
00031C	6F78	MOVWF SYSLCDPRINTDATAHANDLER_H,BANKED
00031E	EC05 F007	CALL GLCDPRINT3
000322	0E2E	MOVLW 46
000324	6F5B	MOVWF LINEX1,BANKED
000326	6B5C	CLRF LINEX1_H,BANKED
000328	0E09	MOVLW 9
00032A	6F5F	MOVWF LINEY1,BANKED
00032C	6B60	CLRF LINEY1_H,BANKED
00032E	0E38	MOVLW 56
000330	6F5D	MOVWF LINEX2,BANKED
000332	6B5E	CLRF LINEX2_H,BANKED
000334	0E13	MOVLW 19
000336	6F61	MOVWF LINEY2,BANKED
000338	6B62	CLRF LINEY2_H,BANKED
00033A	C036 F04B	MOVFF GLCDFOREGROUND,LINECOLOUR
00033E	C037 F04C	MOVFF GLCDFOREGROUND_H,LINECOLOUR_H
000342	D87D	RCALL BOX
000344	0E30	MOVLW 48
000346	6F14	MOVWF CHARLOCX,BANKED
000348	6B15	CLRF CHARLOCX_H,BANKED
00034A	0E0A	MOVLW 10
00034C	6F16	MOVWF CHARLOCY,BANKED
00034E	6B17	CLRF CHARLOCY_H,BANKED
000350	C00F F010	MOVFF CCOUNT,CHARCODE
000354	C036 F04B	MOVFF GLCDFOREGROUND,LINECOLOUR
000358	C037 F04C	MOVFF GLCDFOREGROUND_H,LINECOLOUR_H
00035C	EC0C F006	CALL GLCDDRAWCHAR
000360	C00F F099	MOVFF CCOUNT,SYSVALTEMP
000364	6B9A	CLRF SYSVALTEMP_H,BANKED
000366	EC5B F00A	CALL FN_STR
00036A	EE1E F015	LFSR 1,OUTSTRING
00036E	EE0D F0C6	LFSR 0,STR
000372	EC54 F00B	CALL SYSCOPYSTRING
000376	0E40	MOVLW 64
000378	6F70	MOVWF STRINGLOCX,BANKED
00037A	0E0A	MOVLW 10
00037C	6F16	MOVWF CHARLOCY,BANKED
00037E	0E15	MOVLW LOW OUTSTRING
000380	6F8F	MOVWF SYSSYSINSTRINGHANDLER,BANKED
000382	0E0E	MOVLW HIGH OUTSTRING
000384	6F90	MOVWF SYSSYSINSTRINGHANDLER_H,BANKED
000386	0E03	MOVLW 3
000388	6F8C	MOVWF SYSSTRLEN,BANKED
00038A	EE1D F0D7	LFSR 1,SYSSTRINGPARAM1
00038E	0E0E	MOVLW LOW STRINGTABLE38
000390	6EF6	MOVWF TBLPTRL,ACCESS
000392	0E19	MOVLW HIGH STRINGTABLE38
000394	6EF7	MOVWF TBLPTRH,ACCESS
000396	EC50 F00C	CALL SYSREADSTRING
00039A	0ED7	MOVLW LOW SYSSTRINGPARAM1
00039C	6F8D	MOVWF SYSSYSINSTRING3HANDLER,BANKED
00039E	0E0D	MOVLW HIGH SYSSTRINGPARAM1
0003A0	6F8E	MOVWF SYSSYSINSTRING3HANDLER_H,BANKED
0003A2	EC81 F009	CALL FN_PAD
0003A6	0EEC	MOVLW LOW PAD
0003A8	6F75	MOVWF SYSCHARSHANDLER,BANKED
0003AA	0E0D	MOVLW HIGH PAD
0003AC	6F76	MOVWF SYSCHARSHANDLER_H,BANKED
0003AE	C036 F04B	MOVFF GLCDFOREGROUND,LINECOLOUR
0003B2	C037 F04C	MOVFF GLCDFOREGROUND_H,LINECOLOUR_H
0003B6	ECD2 F006	CALL GLCDDRAWSTRING
0003BA	0E03	MOVLW 3
0003BC	6F5B	MOVWF LINEX1,BANKED
0003BE	0E2B	MOVLW 43
0003C0	6F5F	MOVWF LINEY1,BANKED
0003C2	0E0B	MOVLW 11
0003C4	6F5D	MOVWF LINEX2,BANKED
0003C6	0E33	MOVLW 51
0003C8	6F61	MOVWF LINEY2,BANKED
0003CA	C09B F04B	MOVFF WORDNUMBER,LINECOLOUR
0003CE	C09C F04C	MOVFF WORDNUMBER_H,LINECOLOUR_H
0003D2	D9A4	RCALL FILLEDBOX_NT7108C
0003D4	0E2C	MOVLW 44
0003D6	6F9E	MOVWF XOFFSET,BANKED
0003D8	6B9F	CLRF XOFFSET_H,BANKED
0003DA	0E29	MOVLW 41
0003DC	6FA6	MOVWF YOFFSET,BANKED
0003DE	6BA7	CLRF YOFFSET_H,BANKED
0003E0	0E09	MOVLW 9
0003E2	6FA0	MOVWF XRADIUS,BANKED
0003E4	6BA1	CLRF XRADIUS_H,BANKED
0003E6	0E01	MOVLW 1
0003E8	1963	XORWF LONGNUMBER,W,BANKED
0003EA	6F4B	MOVWF LINECOLOUR,BANKED
0003EC	C064 F04C	MOVFF LONGNUMBER_H,LINECOLOUR_H
0003F0	D9CA	RCALL FILLEDCIRCLE
0003F2	6B5B	CLRF LINEX1,BANKED
0003F4	6B5C	CLRF LINEX1_H,BANKED
0003F6	0E3F	MOVLW 63
0003F8	6F5F	MOVWF LINEY1,BANKED
0003FA	6B60	CLRF LINEY1_H,BANKED
0003FC	0E40	MOVLW 64
0003FE	6F5D	MOVWF LINEX2,BANKED
000400	6B5E	CLRF LINEX2_H,BANKED
000402	0E1F	MOVLW 31
000404	6F61	MOVWF LINEY2,BANKED
000406	6B62	CLRF LINEY2_H,BANKED
000408	C036 F04B	MOVFF GLCDFOREGROUND,LINECOLOUR
00040C	C037 F04C	MOVFF GLCDFOREGROUND_H,LINECOLOUR_H
000410	EC7F F008	CALL LINE
000414	0E07	MOVLW 7
000416	2763	ADDWF LONGNUMBER,F,BANKED
000418	0E00	MOVLW 0
00041A	2364	ADDWFC LONGNUMBER_H,F,BANKED
00041C	0E00	MOVLW 0
00041E	2365	ADDWFC LONGNUMBER_U,F,BANKED
000420	0E00	MOVLW 0
000422	2366	ADDWFC LONGNUMBER_E,F,BANKED
000424	0E03	MOVLW 3
000426	279B	ADDWF WORDNUMBER,F,BANKED
000428	0E00	MOVLW 0
00042A	239C	ADDWFC WORDNUMBER_H,F,BANKED
00042C	2B0E	INCF BYTENUMBER,F,BANKED
00042E	0E7F	MOVLW 127
000430	5D0F	SUBWF CCOUNT,W,BANKED
000432	A0D8	BTFSS STATUS, C,ACCESS
000434	D6D6	BRA SYSFORLOOP1
		ENDIF1
		SYSFORLOOPEND1
000436	D6D3	BRA SYSDOLOOP_S1
		SYSDOLOOP_E1
000438	D000	BRA BASPROGRAMEND
		TABLEFOROLEDFONT2
		INDEXFOROLEDEXTENDEDFONT1
		DATAFOROLEDFONT1
		TABLEFOROLEDEXTENDEDFONT2
		BASPROGRAMEND
00043A	0003	SLEEP
00043C	D7FE	BRA BASPROGRAMEND


		BOX
00043E	C05B F009	MOVFF LINEX1,SYSWORDTEMPB
000442	C05C F00A	MOVFF LINEX1_H,SYSWORDTEMPB_H
000446	C05D F005	MOVFF LINEX2,SYSWORDTEMPA
00044A	C05E F006	MOVFF LINEX2_H,SYSWORDTEMPA_H
00044E	EC1D F00B	CALL SYSCOMPLESSTHAN16
000452	A000	BTFSS SYSBYTETEMPX,0,ACCESS
000454	D00C	BRA ENDIF18
000456	C05B F03D	MOVFF LINEX1,GLCDTEMP
00045A	C05C F03E	MOVFF LINEX1_H,GLCDTEMP_H
00045E	C05D F05B	MOVFF LINEX2,LINEX1
000462	C05E F05C	MOVFF LINEX2_H,LINEX1_H
000466	C03D F05D	MOVFF GLCDTEMP,LINEX2
00046A	C03E F05E	MOVFF GLCDTEMP_H,LINEX2_H
		ENDIF18
00046E	C05F F009	MOVFF LINEY1,SYSWORDTEMPB
000472	C060 F00A	MOVFF LINEY1_H,SYSWORDTEMPB_H
000476	C061 F005	MOVFF LINEY2,SYSWORDTEMPA
00047A	C062 F006	MOVFF LINEY2_H,SYSWORDTEMPA_H
00047E	EC1D F00B	CALL SYSCOMPLESSTHAN16
000482	A000	BTFSS SYSBYTETEMPX,0,ACCESS
000484	D00C	BRA ENDIF19
000486	C05F F03D	MOVFF LINEY1,GLCDTEMP
00048A	C060 F03E	MOVFF LINEY1_H,GLCDTEMP_H
00048E	C061 F05F	MOVFF LINEY2,LINEY1
000492	C062 F060	MOVFF LINEY2_H,LINEY1_H
000496	C03D F061	MOVFF GLCDTEMP,LINEY2
00049A	C03E F062	MOVFF GLCDTEMP_H,LINEY2_H
		ENDIF19
00049E	0E01	MOVLW 1
0004A0	5D5B	SUBWF LINEX1,W,BANKED
0004A2	6F26	MOVWF DRAWLINE,BANKED
0004A4	0E00	MOVLW 0
0004A6	595C	SUBWFB LINEX1_H,W,BANKED
0004A8	6F27	MOVWF DRAWLINE_H,BANKED
0004AA	C05B F009	MOVFF LINEX1,SYSWORDTEMPB
0004AE	C05C F00A	MOVFF LINEX1_H,SYSWORDTEMPB_H
0004B2	C05D F005	MOVFF LINEX2,SYSWORDTEMPA
0004B6	C05E F006	MOVFF LINEX2_H,SYSWORDTEMPA_H
0004BA	EC1D F00B	CALL SYSCOMPLESSTHAN16
0004BE	B000	BTFSC SYSBYTETEMPX,0,ACCESS
0004C0	D023	BRA SYSFORLOOPEND9
		ENDIF20
		SYSFORLOOP9
0004C2	2B26	INCF DRAWLINE,F,BANKED
0004C4	B4D8	BTFSC STATUS,Z,ACCESS
0004C6	2B27	INCF DRAWLINE_H,F,BANKED
0004C8	C026 F03F	MOVFF DRAWLINE,GLCDX
0004CC	C05F F040	MOVFF LINEY1,GLCDY
0004D0	C04B F030	MOVFF LINECOLOUR,GLCDCOLOUR
0004D4	C04C F031	MOVFF LINECOLOUR_H,GLCDCOLOUR_H
0004D8	EC06 F00A	CALL PSET_NT7108C
0004DC	C026 F03F	MOVFF DRAWLINE,GLCDX
0004E0	C061 F040	MOVFF LINEY2,GLCDY
0004E4	C04B F030	MOVFF LINECOLOUR,GLCDCOLOUR
0004E8	C04C F031	MOVFF LINECOLOUR_H,GLCDCOLOUR_H
0004EC	EC06 F00A	CALL PSET_NT7108C
0004F0	C026 F005	MOVFF DRAWLINE,SYSWORDTEMPA
0004F4	C027 F006	MOVFF DRAWLINE_H,SYSWORDTEMPA_H
0004F8	C05D F009	MOVFF LINEX2,SYSWORDTEMPB
0004FC	C05E F00A	MOVFF LINEX2_H,SYSWORDTEMPB_H
000500	EC1D F00B	CALL SYSCOMPLESSTHAN16
000504	B000	BTFSC SYSBYTETEMPX,0,ACCESS
000506	D7DD	BRA SYSFORLOOP9
		ENDIF21
		SYSFORLOOPEND9
000508	0E01	MOVLW 1
00050A	5D5F	SUBWF LINEY1,W,BANKED
00050C	6F26	MOVWF DRAWLINE,BANKED
00050E	0E00	MOVLW 0
000510	5960	SUBWFB LINEY1_H,W,BANKED
000512	6F27	MOVWF DRAWLINE_H,BANKED
000514	C05F F009	MOVFF LINEY1,SYSWORDTEMPB
000518	C060 F00A	MOVFF LINEY1_H,SYSWORDTEMPB_H
00051C	C061 F005	MOVFF LINEY2,SYSWORDTEMPA
000520	C062 F006	MOVFF LINEY2_H,SYSWORDTEMPA_H
000524	EC1D F00B	CALL SYSCOMPLESSTHAN16
000528	B000	BTFSC SYSBYTETEMPX,0,ACCESS
00052A	D023	BRA SYSFORLOOPEND10
		ENDIF22
		SYSFORLOOP10
00052C	2B26	INCF DRAWLINE,F,BANKED
00052E	B4D8	BTFSC STATUS,Z,ACCESS
000530	2B27	INCF DRAWLINE_H,F,BANKED
000532	C05B F03F	MOVFF LINEX1,GLCDX
000536	C026 F040	MOVFF DRAWLINE,GLCDY
00053A	C04B F030	MOVFF LINECOLOUR,GLCDCOLOUR
00053E	C04C F031	MOVFF LINECOLOUR_H,GLCDCOLOUR_H
000542	EC06 F00A	CALL PSET_NT7108C
000546	C05D F03F	MOVFF LINEX2,GLCDX
00054A	C026 F040	MOVFF DRAWLINE,GLCDY
00054E	C04B F030	MOVFF LINECOLOUR,GLCDCOLOUR
000552	C04C F031	MOVFF LINECOLOUR_H,GLCDCOLOUR_H
000556	EC06 F00A	CALL PSET_NT7108C
00055A	C026 F005	MOVFF DRAWLINE,SYSWORDTEMPA
00055E	C027 F006	MOVFF DRAWLINE_H,SYSWORDTEMPA_H
000562	C061 F009	MOVFF LINEY2,SYSWORDTEMPB
000566	C062 F00A	MOVFF LINEY2_H,SYSWORDTEMPB_H
00056A	EC1D F00B	CALL SYSCOMPLESSTHAN16
00056E	B000	BTFSC SYSBYTETEMPX,0,ACCESS
000570	D7DD	BRA SYSFORLOOP10
		ENDIF23
		SYSFORLOOPEND10
000572	0012	RETURN


		CIRCLE
000574	C044 F0A0	MOVFF INXRADIUS,XRADIUS
000578	C045 F0A1	MOVFF INXRADIUS_H,XRADIUS_H
00057C	C0A0 F005	MOVFF XRADIUS,SYSINTEGERTEMPA
000580	C0A1 F006	MOVFF XRADIUS_H,SYSINTEGERTEMPA_H
000584	0E02	MOVLW 2
000586	6E09	MOVWF SYSINTEGERTEMPB,ACCESS
000588	6A0A	CLRF SYSINTEGERTEMPB_H,ACCESS
00058A	EC06 F00C	CALL SYSDIVSUBINT
00058E	C005 F091	MOVFF SYSINTEGERTEMPA,SYSTEMP1
000592	C006 F092	MOVFF SYSINTEGERTEMPA_H,SYSTEMP1_H
000596	1D91	COMF SYSTEMP1,W,BANKED
000598	6F6C	MOVWF RADIUSERR,BANKED
00059A	1D92	COMF SYSTEMP1_H,W,BANKED
00059C	6F6D	MOVWF RADIUSERR_H,BANKED
00059E	2B6C	INCF RADIUSERR,F,BANKED
0005A0	B4D8	BTFSC STATUS,Z,ACCESS
0005A2	2B6D	INCF RADIUSERR_H,F,BANKED
		SYSDOLOOP_S3
0005A4	C0A0 F005	MOVFF XRADIUS,SYSINTEGERTEMPA
0005A8	C0A1 F006	MOVFF XRADIUS_H,SYSINTEGERTEMPA_H
0005AC	C0A8 F009	MOVFF YORDINATE,SYSINTEGERTEMPB
0005B0	6A0A	CLRF SYSINTEGERTEMPB_H,ACCESS
0005B2	EC2B F00B	CALL SYSCOMPLESSTHANINT
0005B6	1E00	COMF SYSBYTETEMPX,F,ACCESS
0005B8	A000	BTFSS SYSBYTETEMPX,0,ACCESS
0005BA	D099	BRA SYSDOLOOP_E3
0005BC	51A0	MOVF XRADIUS,W,BANKED
0005BE	259E	ADDWF XOFFSET,W,BANKED
0005C0	6F3F	MOVWF GLCDX,BANKED
0005C2	51A8	MOVF YORDINATE,W,BANKED
0005C4	25A6	ADDWF YOFFSET,W,BANKED
0005C6	6F40	MOVWF GLCDY,BANKED
0005C8	C04B F030	MOVFF LINECOLOUR,GLCDCOLOUR
0005CC	C04C F031	MOVFF LINECOLOUR_H,GLCDCOLOUR_H
0005D0	EC06 F00A	CALL PSET_NT7108C
0005D4	51A8	MOVF YORDINATE,W,BANKED
0005D6	259E	ADDWF XOFFSET,W,BANKED
0005D8	6F3F	MOVWF GLCDX,BANKED
0005DA	51A0	MOVF XRADIUS,W,BANKED
0005DC	25A6	ADDWF YOFFSET,W,BANKED
0005DE	6F40	MOVWF GLCDY,BANKED
0005E0	C04B F030	MOVFF LINECOLOUR,GLCDCOLOUR
0005E4	C04C F031	MOVFF LINECOLOUR_H,GLCDCOLOUR_H
0005E8	EC06 F00A	CALL PSET_NT7108C
0005EC	51A0	MOVF XRADIUS,W,BANKED
0005EE	5D9E	SUBWF XOFFSET,W,BANKED
0005F0	6F3F	MOVWF GLCDX,BANKED
0005F2	51A8	MOVF YORDINATE,W,BANKED
0005F4	25A6	ADDWF YOFFSET,W,BANKED
0005F6	6F40	MOVWF GLCDY,BANKED
0005F8	C04B F030	MOVFF LINECOLOUR,GLCDCOLOUR
0005FC	C04C F031	MOVFF LINECOLOUR_H,GLCDCOLOUR_H
000600	EC06 F00A	CALL PSET_NT7108C
000604	51A8	MOVF YORDINATE,W,BANKED
000606	5D9E	SUBWF XOFFSET,W,BANKED
000608	6F3F	MOVWF GLCDX,BANKED
00060A	51A0	MOVF XRADIUS,W,BANKED
00060C	25A6	ADDWF YOFFSET,W,BANKED
00060E	6F40	MOVWF GLCDY,BANKED
000610	C04B F030	MOVFF LINECOLOUR,GLCDCOLOUR
000614	C04C F031	MOVFF LINECOLOUR_H,GLCDCOLOUR_H
000618	EC06 F00A	CALL PSET_NT7108C
00061C	51A0	MOVF XRADIUS,W,BANKED
00061E	5D9E	SUBWF XOFFSET,W,BANKED
000620	6F3F	MOVWF GLCDX,BANKED
000622	51A8	MOVF YORDINATE,W,BANKED
000624	5DA6	SUBWF YOFFSET,W,BANKED
000626	6F40	MOVWF GLCDY,BANKED
000628	C04B F030	MOVFF LINECOLOUR,GLCDCOLOUR
00062C	C04C F031	MOVFF LINECOLOUR_H,GLCDCOLOUR_H
000630	EC06 F00A	CALL PSET_NT7108C
000634	51A8	MOVF YORDINATE,W,BANKED
000636	5D9E	SUBWF XOFFSET,W,BANKED
000638	6F3F	MOVWF GLCDX,BANKED
00063A	51A0	MOVF XRADIUS,W,BANKED
00063C	5DA6	SUBWF YOFFSET,W,BANKED
00063E	6F40	MOVWF GLCDY,BANKED
000640	C04B F030	MOVFF LINECOLOUR,GLCDCOLOUR
000644	C04C F031	MOVFF LINECOLOUR_H,GLCDCOLOUR_H
000648	EC06 F00A	CALL PSET_NT7108C
00064C	51A0	MOVF XRADIUS,W,BANKED
00064E	259E	ADDWF XOFFSET,W,BANKED
000650	6F3F	MOVWF GLCDX,BANKED
000652	51A8	MOVF YORDINATE,W,BANKED
000654	5DA6	SUBWF YOFFSET,W,BANKED
000656	6F40	MOVWF GLCDY,BANKED
000658	C04B F030	MOVFF LINECOLOUR,GLCDCOLOUR
00065C	C04C F031	MOVFF LINECOLOUR_H,GLCDCOLOUR_H
000660	EC06 F00A	CALL PSET_NT7108C
000664	51A8	MOVF YORDINATE,W,BANKED
000666	259E	ADDWF XOFFSET,W,BANKED
000668	6F3F	MOVWF GLCDX,BANKED
00066A	51A0	MOVF XRADIUS,W,BANKED
00066C	5DA6	SUBWF YOFFSET,W,BANKED
00066E	6F40	MOVWF GLCDY,BANKED
000670	C04B F030	MOVFF LINECOLOUR,GLCDCOLOUR
000674	C04C F031	MOVFF LINECOLOUR_H,GLCDCOLOUR_H
000678	EC06 F00A	CALL PSET_NT7108C
00067C	2BA8	INCF YORDINATE,F,BANKED
00067E	C06C F005	MOVFF RADIUSERR,SYSINTEGERTEMPA
000682	C06D F006	MOVFF RADIUSERR_H,SYSINTEGERTEMPA_H
000686	6A09	CLRF SYSINTEGERTEMPB,ACCESS
000688	6A0A	CLRF SYSINTEGERTEMPB_H,ACCESS
00068A	EC2B F00B	CALL SYSCOMPLESSTHANINT
00068E	A000	BTFSS SYSBYTETEMPX,0,ACCESS
000690	D00F	BRA ELSE24_1
000692	51A8	MOVF YORDINATE,W,BANKED
000694	0D02	MULLW 2
000696	50F3	MOVF PRODL,W,ACCESS
000698	256C	ADDWF RADIUSERR,W,BANKED
00069A	6F91	MOVWF SYSTEMP1,BANKED
00069C	0E00	MOVLW 0
00069E	216D	ADDWFC RADIUSERR_H,W,BANKED
0006A0	6F92	MOVWF SYSTEMP1_H,BANKED
0006A2	0E01	MOVLW 1
0006A4	2591	ADDWF SYSTEMP1,W,BANKED
0006A6	6F6C	MOVWF RADIUSERR,BANKED
0006A8	0E00	MOVLW 0
0006AA	2192	ADDWFC SYSTEMP1_H,W,BANKED
0006AC	6F6D	MOVWF RADIUSERR_H,BANKED
0006AE	D01E	BRA ENDIF24
		ELSE24_1
0006B0	0E01	MOVLW 1
0006B2	5FA0	SUBWF XRADIUS,F,BANKED
0006B4	0E00	MOVLW 0
0006B6	5BA1	SUBWFB XRADIUS_H,F,BANKED
0006B8	51A0	MOVF XRADIUS,W,BANKED
0006BA	5DA8	SUBWF YORDINATE,W,BANKED
0006BC	6F91	MOVWF SYSTEMP1,BANKED
0006BE	6B95	CLRF SYSTEMP2,BANKED
0006C0	51A1	MOVF XRADIUS_H,W,BANKED
0006C2	5995	SUBWFB SYSTEMP2,W,BANKED
0006C4	6F92	MOVWF SYSTEMP1_H,BANKED
0006C6	0E01	MOVLW 1
0006C8	2591	ADDWF SYSTEMP1,W,BANKED
0006CA	6F97	MOVWF SYSTEMP3,BANKED
0006CC	0E00	MOVLW 0
0006CE	2192	ADDWFC SYSTEMP1_H,W,BANKED
0006D0	6F98	MOVWF SYSTEMP3_H,BANKED
0006D2	C097 F005	MOVFF SYSTEMP3,SYSINTEGERTEMPA
0006D6	C098 F006	MOVFF SYSTEMP3_H,SYSINTEGERTEMPA_H
0006DA	0E02	MOVLW 2
0006DC	6E09	MOVWF SYSINTEGERTEMPB,ACCESS
0006DE	6A0A	CLRF SYSINTEGERTEMPB_H,ACCESS
0006E0	EC36 F00C	CALL SYSMULTSUBINT
0006E4	5000	MOVF SYSINTEGERTEMPX,W,ACCESS
0006E6	276C	ADDWF RADIUSERR,F,BANKED
0006E8	5001	MOVF SYSINTEGERTEMPX_H,W,ACCESS
0006EA	236D	ADDWFC RADIUSERR_H,F,BANKED
		ENDIF24
0006EC	D75B	BRA SYSDOLOOP_S3
		SYSDOLOOP_E3
0006EE	0012	RETURN


		DELAY_MS
0006F0	2A03	INCF SYSWAITTEMPMS_H, F,ACCESS
		DMS_START
0006F2	0E81	MOVLW 129
0006F4	6E01	MOVWF DELAYTEMP2,ACCESS
		DMS_OUTER
0006F6	0E28	MOVLW 40
0006F8	6E00	MOVWF DELAYTEMP,ACCESS
		DMS_INNER
0006FA	2E00	DECFSZ DELAYTEMP, F,ACCESS
0006FC	D7FE	BRA DMS_INNER
0006FE	2E01	DECFSZ DELAYTEMP2, F,ACCESS
000700	D7FA	BRA DMS_OUTER
000702	2E02	DECFSZ SYSWAITTEMPMS, F,ACCESS
000704	D7F6	BRA DMS_START
000706	2E03	DECFSZ SYSWAITTEMPMS_H, F,ACCESS
000708	D7F4	BRA DMS_START
00070A	0012	RETURN


		DELAY_S
		DS_START
00070C	0EE8	MOVLW 232
00070E	6E02	MOVWF SYSWAITTEMPMS,ACCESS
000710	0E03	MOVLW 3
000712	6E03	MOVWF SYSWAITTEMPMS_H,ACCESS
000714	DFED	RCALL DELAY_MS
000716	2E04	DECFSZ SYSWAITTEMPS, F,ACCESS
000718	D7F9	BRA DS_START
00071A	0012	RETURN


		FILLEDBOX_NT7108C
00071C	515B	MOVF LINEX1,W,BANKED
00071E	5D5D	SUBWF LINEX2,W,BANKED
000720	B0D8	BTFSC STATUS, C,ACCESS
000722	D006	BRA ENDIF34
000724	C05B F03D	MOVFF LINEX1,GLCDTEMP
000728	C05D F05B	MOVFF LINEX2,LINEX1
00072C	C03D F05D	MOVFF GLCDTEMP,LINEX2
		ENDIF34
000730	515F	MOVF LINEY1,W,BANKED
000732	5D61	SUBWF LINEY2,W,BANKED
000734	B0D8	BTFSC STATUS, C,ACCESS
000736	D006	BRA ENDIF35
000738	C05F F03D	MOVFF LINEY1,GLCDTEMP
00073C	C061 F05F	MOVFF LINEY2,LINEY1
000740	C03D F061	MOVFF GLCDTEMP,LINEY2
		ENDIF35
000744	055B	DECF LINEX1,W,BANKED
000746	6F26	MOVWF DRAWLINE,BANKED
000748	515B	MOVF LINEX1,W,BANKED
00074A	5D5D	SUBWF LINEX2,W,BANKED
00074C	A0D8	BTFSS STATUS, C,ACCESS
00074E	D01A	BRA SYSFORLOOPEND14
		ENDIF36
		SYSFORLOOP14
000750	2B26	INCF DRAWLINE,F,BANKED
000752	055F	DECF LINEY1,W,BANKED
000754	6F3D	MOVWF GLCDTEMP,BANKED
000756	515F	MOVF LINEY1,W,BANKED
000758	5D61	SUBWF LINEY2,W,BANKED
00075A	A0D8	BTFSS STATUS, C,ACCESS
00075C	D00F	BRA SYSFORLOOPEND15
		ENDIF37
		SYSFORLOOP15
00075E	2B3D	INCF GLCDTEMP,F,BANKED
000760	C026 F03F	MOVFF DRAWLINE,GLCDX
000764	C03D F040	MOVFF GLCDTEMP,GLCDY
000768	C04B F030	MOVFF LINECOLOUR,GLCDCOLOUR
00076C	C04C F031	MOVFF LINECOLOUR_H,GLCDCOLOUR_H
000770	EC06 F00A	CALL PSET_NT7108C
000774	5161	MOVF LINEY2,W,BANKED
000776	5D3D	SUBWF GLCDTEMP,W,BANKED
000778	A0D8	BTFSS STATUS, C,ACCESS
00077A	D7F1	BRA SYSFORLOOP15
		ENDIF38
		SYSFORLOOPEND15
00077C	515D	MOVF LINEX2,W,BANKED
00077E	5D26	SUBWF DRAWLINE,W,BANKED
000780	A0D8	BTFSS STATUS, C,ACCESS
000782	D7E6	BRA SYSFORLOOP14
		ENDIF39
		SYSFORLOOPEND14
000784	0012	RETURN


		FILLEDCIRCLE
000786	51A0	MOVF XRADIUS,W,BANKED
000788	0801	SUBLW 1
00078A	6F28	MOVWF FF,BANKED
00078C	6B91	CLRF SYSTEMP1,BANKED
00078E	51A1	MOVF XRADIUS_H,W,BANKED
000790	5991	SUBWFB SYSTEMP1,W,BANKED
000792	6F29	MOVWF FF_H,BANKED
000794	0E01	MOVLW 1
000796	6F22	MOVWF DDF_X,BANKED
000798	6B23	CLRF DDF_X_H,BANKED
00079A	C0A0 F005	MOVFF XRADIUS,SYSINTEGERTEMPA
00079E	C0A1 F006	MOVFF XRADIUS_H,SYSINTEGERTEMPA_H
0007A2	0EFE	MOVLW 254
0007A4	6E09	MOVWF SYSINTEGERTEMPB,ACCESS
0007A6	680A	SETF SYSINTEGERTEMPB_H,ACCESS
0007A8	EC36 F00C	CALL SYSMULTSUBINT
0007AC	C000 F024	MOVFF SYSINTEGERTEMPX,DDF_Y
0007B0	C001 F025	MOVFF SYSINTEGERTEMPX_H,DDF_Y_H
0007B4	6B2A	CLRF FILLCIRCLEXX,BANKED
0007B6	C0A0 F02B	MOVFF XRADIUS,FILLCIRCLEYY
0007BA	51A0	MOVF XRADIUS,W,BANKED
0007BC	25A6	ADDWF YOFFSET,W,BANKED
0007BE	6FA4	MOVWF YCALC2,BANKED
0007C0	51A1	MOVF XRADIUS_H,W,BANKED
0007C2	21A7	ADDWFC YOFFSET_H,W,BANKED
0007C4	6FA5	MOVWF YCALC2_H,BANKED
0007C6	51A0	MOVF XRADIUS,W,BANKED
0007C8	5DA6	SUBWF YOFFSET,W,BANKED
0007CA	6FA2	MOVWF YCALC1,BANKED
0007CC	51A1	MOVF XRADIUS_H,W,BANKED
0007CE	59A7	SUBWFB YOFFSET_H,W,BANKED
0007D0	6FA3	MOVWF YCALC1_H,BANKED
0007D2	C09E F05B	MOVFF XOFFSET,LINEX1
0007D6	C09F F05C	MOVFF XOFFSET_H,LINEX1_H
0007DA	C0A2 F05F	MOVFF YCALC1,LINEY1
0007DE	C0A3 F060	MOVFF YCALC1_H,LINEY1_H
0007E2	C09E F05D	MOVFF XOFFSET,LINEX2
0007E6	C09F F05E	MOVFF XOFFSET_H,LINEX2_H
0007EA	C0A4 F061	MOVFF YCALC2,LINEY2
0007EE	C0A5 F062	MOVFF YCALC2_H,LINEY2_H
0007F2	EC7F F008	CALL LINE
		SYSDOLOOP_S4
0007F6	512B	MOVF FILLCIRCLEYY,W,BANKED
0007F8	5D2A	SUBWF FILLCIRCLEXX,W,BANKED
0007FA	B0D8	BTFSC STATUS, C,ACCESS
0007FC	D086	BRA SYSDOLOOP_E4
0007FE	C028 F005	MOVFF FF,SYSINTEGERTEMPA
000802	C029 F006	MOVFF FF_H,SYSINTEGERTEMPA_H
000806	6A09	CLRF SYSINTEGERTEMPB,ACCESS
000808	6A0A	CLRF SYSINTEGERTEMPB_H,ACCESS
00080A	EC2B F00B	CALL SYSCOMPLESSTHANINT
00080E	1E00	COMF SYSBYTETEMPX,F,ACCESS
000810	A000	BTFSS SYSBYTETEMPX,0,ACCESS
000812	D009	BRA ENDIF25
000814	072B	DECF FILLCIRCLEYY,F,BANKED
000816	0E02	MOVLW 2
000818	2724	ADDWF DDF_Y,F,BANKED
00081A	0E00	MOVLW 0
00081C	2325	ADDWFC DDF_Y_H,F,BANKED
00081E	5124	MOVF DDF_Y,W,BANKED
000820	2728	ADDWF FF,F,BANKED
000822	5125	MOVF DDF_Y_H,W,BANKED
000824	2329	ADDWFC FF_H,F,BANKED
		ENDIF25
000826	2B2A	INCF FILLCIRCLEXX,F,BANKED
000828	0E02	MOVLW 2
00082A	2722	ADDWF DDF_X,F,BANKED
00082C	0E00	MOVLW 0
00082E	2323	ADDWFC DDF_X_H,F,BANKED
000830	5122	MOVF DDF_X,W,BANKED
000832	2728	ADDWF FF,F,BANKED
000834	5123	MOVF DDF_X_H,W,BANKED
000836	2329	ADDWFC FF_H,F,BANKED
000838	512A	MOVF FILLCIRCLEXX,W,BANKED
00083A	259E	ADDWF XOFFSET,W,BANKED
00083C	6F5B	MOVWF LINEX1,BANKED
00083E	0E00	MOVLW 0
000840	219F	ADDWFC XOFFSET_H,W,BANKED
000842	6F5C	MOVWF LINEX1_H,BANKED
000844	512B	MOVF FILLCIRCLEYY,W,BANKED
000846	25A6	ADDWF YOFFSET,W,BANKED
000848	6F5F	MOVWF LINEY1,BANKED
00084A	0E00	MOVLW 0
00084C	21A7	ADDWFC YOFFSET_H,W,BANKED
00084E	6F60	MOVWF LINEY1_H,BANKED
000850	512A	MOVF FILLCIRCLEXX,W,BANKED
000852	259E	ADDWF XOFFSET,W,BANKED
000854	6F5D	MOVWF LINEX2,BANKED
000856	0E00	MOVLW 0
000858	219F	ADDWFC XOFFSET_H,W,BANKED
00085A	6F5E	MOVWF LINEX2_H,BANKED
00085C	512B	MOVF FILLCIRCLEYY,W,BANKED
00085E	5DA6	SUBWF YOFFSET,W,BANKED
000860	6F61	MOVWF LINEY2,BANKED
000862	0E00	MOVLW 0
000864	59A7	SUBWFB YOFFSET_H,W,BANKED
000866	6F62	MOVWF LINEY2_H,BANKED
000868	EC7F F008	CALL LINE
00086C	512A	MOVF FILLCIRCLEXX,W,BANKED
00086E	5D9E	SUBWF XOFFSET,W,BANKED
000870	6F5B	MOVWF LINEX1,BANKED
000872	0E00	MOVLW 0
000874	599F	SUBWFB XOFFSET_H,W,BANKED
000876	6F5C	MOVWF LINEX1_H,BANKED
000878	512B	MOVF FILLCIRCLEYY,W,BANKED
00087A	25A6	ADDWF YOFFSET,W,BANKED
00087C	6F5F	MOVWF LINEY1,BANKED
00087E	0E00	MOVLW 0
000880	21A7	ADDWFC YOFFSET_H,W,BANKED
000882	6F60	MOVWF LINEY1_H,BANKED
000884	512A	MOVF FILLCIRCLEXX,W,BANKED
000886	5D9E	SUBWF XOFFSET,W,BANKED
000888	6F5D	MOVWF LINEX2,BANKED
00088A	0E00	MOVLW 0
00088C	599F	SUBWFB XOFFSET_H,W,BANKED
00088E	6F5E	MOVWF LINEX2_H,BANKED
000890	512B	MOVF FILLCIRCLEYY,W,BANKED
000892	5DA6	SUBWF YOFFSET,W,BANKED
000894	6F61	MOVWF LINEY2,BANKED
000896	0E00	MOVLW 0
000898	59A7	SUBWFB YOFFSET_H,W,BANKED
00089A	6F62	MOVWF LINEY2_H,BANKED
00089C	EC7F F008	CALL LINE
0008A0	512B	MOVF FILLCIRCLEYY,W,BANKED
0008A2	259E	ADDWF XOFFSET,W,BANKED
0008A4	6F5B	MOVWF LINEX1,BANKED
0008A6	0E00	MOVLW 0
0008A8	219F	ADDWFC XOFFSET_H,W,BANKED
0008AA	6F5C	MOVWF LINEX1_H,BANKED
0008AC	512A	MOVF FILLCIRCLEXX,W,BANKED
0008AE	25A6	ADDWF YOFFSET,W,BANKED
0008B0	6F5F	MOVWF LINEY1,BANKED
0008B2	0E00	MOVLW 0
0008B4	21A7	ADDWFC YOFFSET_H,W,BANKED
0008B6	6F60	MOVWF LINEY1_H,BANKED
0008B8	519E	MOVF XOFFSET,W,BANKED
0008BA	252B	ADDWF FILLCIRCLEYY,W,BANKED
0008BC	6F5D	MOVWF LINEX2,BANKED
0008BE	6B91	CLRF SYSTEMP1,BANKED
0008C0	519F	MOVF XOFFSET_H,W,BANKED
0008C2	2191	ADDWFC SYSTEMP1,W,BANKED
0008C4	6F5E	MOVWF LINEX2_H,BANKED
0008C6	512A	MOVF FILLCIRCLEXX,W,BANKED
0008C8	5DA6	SUBWF YOFFSET,W,BANKED
0008CA	6F61	MOVWF LINEY2,BANKED
0008CC	0E00	MOVLW 0
0008CE	59A7	SUBWFB YOFFSET_H,W,BANKED
0008D0	6F62	MOVWF LINEY2_H,BANKED
0008D2	EC7F F008	CALL LINE
0008D6	512B	MOVF FILLCIRCLEYY,W,BANKED
0008D8	5D9E	SUBWF XOFFSET,W,BANKED
0008DA	6F5B	MOVWF LINEX1,BANKED
0008DC	0E00	MOVLW 0
0008DE	599F	SUBWFB XOFFSET_H,W,BANKED
0008E0	6F5C	MOVWF LINEX1_H,BANKED
0008E2	512A	MOVF FILLCIRCLEXX,W,BANKED
0008E4	25A6	ADDWF YOFFSET,W,BANKED
0008E6	6F5F	MOVWF LINEY1,BANKED
0008E8	0E00	MOVLW 0
0008EA	21A7	ADDWFC YOFFSET_H,W,BANKED
0008EC	6F60	MOVWF LINEY1_H,BANKED
0008EE	512B	MOVF FILLCIRCLEYY,W,BANKED
0008F0	5D9E	SUBWF XOFFSET,W,BANKED
0008F2	6F5D	MOVWF LINEX2,BANKED
0008F4	0E00	MOVLW 0
0008F6	599F	SUBWFB XOFFSET_H,W,BANKED
0008F8	6F5E	MOVWF LINEX2_H,BANKED
0008FA	512A	MOVF FILLCIRCLEXX,W,BANKED
0008FC	5DA6	SUBWF YOFFSET,W,BANKED
0008FE	6F61	MOVWF LINEY2,BANKED
000900	0E00	MOVLW 0
000902	59A7	SUBWFB YOFFSET_H,W,BANKED
000904	6F62	MOVWF LINEY2_H,BANKED
000906	DBFB	RCALL LINE
000908	D776	BRA SYSDOLOOP_S4
		SYSDOLOOP_E4
00090A	0012	RETURN


		GLCDCHARCOL3
00090C	0E71	MOVLW 113
00090E	6007	CPFSLT SYSSTRINGA,ACCESS
000910	0C00	RETLW 0
000912	5007	MOVF SYSSTRINGA, W,ACCESS
000914	0F26	ADDLW LOW TABLEGLCDCHARCOL3
000916	6EF6	MOVWF TBLPTRL,ACCESS
000918	0E09	MOVLW HIGH TABLEGLCDCHARCOL3
00091A	B0D8	BTFSC STATUS, C,ACCESS
00091C	0F01	ADDLW 1
00091E	6EF7	MOVWF TBLPTRH,ACCESS
000920	0008	TBLRD*
000922	50F5	MOVF TABLAT, W,ACCESS
000924	0012	RETURN
		TABLEGLCDCHARCOL3
000926	0070 0C10 880A 3822 0820 1020 8010 4080 0004 0000 4828 6C46 0000 2800	RAW 0070,0C10,880A,3822,0820,1020,8010,4080,0004,0000,4828,6C46,0000,2800
000942	0010 0010 7C40 8400 3082 784E 6C06 000C 1000 0028 6404 FEF8 FE7C	RAW 0010,0010,7C40,8400,3082,784E,6C06,000C,1000,0028,6404,FEF8,FE7C
00095C	FEFE FE7C 4000 FEFE FEFE FE7C FE7C 024C 3E7E C67E C20E	RAW FEFE,FE7C,4000,FEFE,FEFE,FE7C,FE7C,024C,3E7E,C67E,C20E
000972	0400 0800 0080 FE40 7070 1070 FE10 4000 00FE F8F8 F870 F810	RAW 0400,0800,0080,FE40,7070,1070,FE10,4000,00FE,F8F8,F870,F810
00098A	1090 3878 8878 8818 0000 2000 0078	RAW 1090,3878,8878,8818,0000,2000,0078


		GLCDCHARCOL4
000998	0E71	MOVLW 113
00099A	6007	CPFSLT SYSSTRINGA,ACCESS
00099C	0C00	RETLW 0
00099E	5007	MOVF SYSSTRINGA, W,ACCESS
0009A0	0FB2	ADDLW LOW TABLEGLCDCHARCOL4
0009A2	6EF6	MOVWF TBLPTRL,ACCESS
0009A4	0E09	MOVLW HIGH TABLEGLCDCHARCOL4
0009A6	B0D8	BTFSC STATUS, C,ACCESS
0009A8	0F01	ADDLW 1
0009AA	6EF7	MOVWF TBLPTRH,ACCESS
0009AC	0008	TBLRD*
0009AE	50F5	MOVF TABLAT, W,ACCESS
0009B0	0012	RETURN
		TABLEGLCDCHARCOL4
0009B2	FE70 0A38 CC06 7C66 0470 1040 8838 70A2 001C 0E00 54FE 9226	RAW FE70,0A38,CC06,7C66,0470,1040,8838,70A2,001C,0E00,54FE,9226
0009CA	380A 1082 A010 C010 A220 C284 2882 948A 9202 6C92 28AC	RAW 380A,1082,A010,C010,A220,C284,2882,948A,9202,6C92,28AC
0009E0	8228 9202 9224 8282 1292 1082 8082 8010 0804 1282 1282 0292	RAW 8228,9202,9224,8282,1292,1082,8082,8010,0804,1282,1282,0292
0009F8	4080 2880 A210 08FE 0482 0280 90A8 8888 FCA8 10A8 8090	RAW 4080,2880,A210,08FE,0482,0280,90A8,8888,FCA8,10A8,8090
000A0E	8220 1008 2888 1028 7CA8 4080 5080 C8A0 0010 1082 0044	RAW 8220,1008,2888,1028,7CA8,4080,5080,C8A0,0010,1082,0044


		GLCDCHARCOL5
000A24	0E71	MOVLW 113
000A26	6007	CPFSLT SYSSTRINGA,ACCESS
000A28	0C00	RETLW 0
000A2A	5007	MOVF SYSSTRINGA, W,ACCESS
000A2C	0F3E	ADDLW LOW TABLEGLCDCHARCOL5
000A2E	6EF6	MOVWF TBLPTRL,ACCESS
000A30	0E0A	MOVLW HIGH TABLEGLCDCHARCOL5
000A32	B0D8	BTFSC STATUS, C,ACCESS
000A34	0F01	ADDLW 1
000A36	6EF7	MOVWF TBLPTRH,ACCESS
000A38	0008	TBLRD*
000A3A	50F5	MOVF TABLAT, W,ACCESS
000A3C	0012	RETURN
		TABLEGLCDCHARCOL5
000A3E	7C70 007C EE00 7CEE FEA8 54FE 9454 7C94 007C 009E FE28 AA10	RAW 7C70,007C,EE00,7CEE,FEA8,54FE,9454,7C94,007C,009E,FE28,AA10
000A56	4406 7C44 607C C010 9210 A2FE 248A 928A 92E2 6C92 446C	RAW 4406,7C44,607C,C010,9210,A2FE,248A,928A,92E2,6C92,446C
000A6C	4428 F2A2 9222 8282 1292 1092 82FE 8028 1018 1282 32A2	RAW 4428,F2A2,9222,8282,1292,1092,82FE,8028,1018,1282,32A2
000A82	FE92 8080 1070 92E0 1082 0282 0480 88A8 8888 12A8 08A8	RAW FE92,8080,1070,92E0,1082,0282,0480,88A8,8888,12A8,08A8
000A98	88FA FE50 08F0 2888 0828 90A8 8080 2060 A8A0 FE6C 106C	RAW 88FA,FE50,08F0,2888,0828,90A8,8080,2060,A8A0,FE6C,106C
000AAE	0042	RAW 0042


		GLCDCHARCOL6
000AB0	0E71	MOVLW 113
000AB2	6007	CPFSLT SYSSTRINGA,ACCESS
000AB4	0C00	RETLW 0
000AB6	5007	MOVF SYSSTRINGA, W,ACCESS
000AB8	0FCA	ADDLW LOW TABLEGLCDCHARCOL6
000ABA	6EF6	MOVWF TBLPTRL,ACCESS
000ABC	0E0A	MOVLW HIGH TABLEGLCDCHARCOL6
000ABE	B0D8	BTFSC STATUS, C,ACCESS
000AC0	0F01	ADDLW 1
000AC2	6EF7	MOVWF TBLPTRH,ACCESS
000AC4	0008	TBLRD*
000AC6	50F5	MOVF TABLAT, W,ACCESS
000AC8	0012	RETURN
		TABLEGLCDCHARCOL6
000ACA	3870 0CFE CC0A 7C66 0420 3840 A210 7088 001C 0E00 54FE 44C8	RAW 3870,0CFE,CC0A,7C66,0420,3840,A210,7088,001C,0E00,54FE,44C8
000AE2	8200 1038 0010 0010 8A08 9280 FE96 928A 9212 0052 8200 2828 8212	RAW 8200,1038,0010,0010,8A08,9280,FE96,928A,9212,0052,8200,2828,8212
000AFC	9224 4482 1292 1092 7E82 8044 2004 1282 5242 0292 4080 2880	RAW 9224,4482,1292,1092,7E82,8044,2004,1282,5242,0292,4080,2880
000B14	8A10 2082 04FE 0880 88A8 9088 02A8 08A8 7A80 8088 0808 2888	RAW 8A10,2082,04FE,0880,88A8,9088,02A8,08A8,7A80,8088,0808,2888
000B2C	0830 80A8 4040 5080 98A0 0082 2010 0044	RAW 0830,80A8,4040,5080,98A0,0082,2010,0044


		GLCDCHARCOL7
000B3C	0E71	MOVLW 113
000B3E	6007	CPFSLT SYSSTRINGA,ACCESS
000B40	0C00	RETLW 0
000B42	5007	MOVF SYSSTRINGA, W,ACCESS
000B44	0F56	ADDLW LOW TABLEGLCDCHARCOL7
000B46	6EF6	MOVWF TBLPTRL,ACCESS
000B48	0E0B	MOVLW HIGH TABLEGLCDCHARCOL7
000B4A	B0D8	BTFSC STATUS, C,ACCESS
000B4C	0F01	ADDLW 1
000B4E	6EF7	MOVWF TBLPTRH,ACCESS
000B50	0008	TBLRD*
000B52	50F5	MOVF TABLAT, W,ACCESS
000B54	0012	RETURN
		TABLEGLCDCHARCOL7
000B56	1070 0A00 8806 3822 083E 1020 8010 4080 0004 0000 2428 A0C4 0000 2800	RAW 1070,0A00,8806,3822,083E,1020,8010,4080,0004,0000,2428,A0C4,0000,2800
000B72	0010 0010 7C04 8C00 2062 6072 6C0E 003C 0000 1028 7C0C 6CF8 3844	RAW 0010,0010,7C04,8C00,2062,6072,6C0E,003C,0000,1028,7C0C,6CF8,3844
000B8C	0282 FEF4 0200 8082 FEFE 0C7C 8CBC 0264 3E7E C67E 860E 4000	RAW 0282,FEF4,0200,8082,FEFE,0C7C,8CBC,0264,3E7E,C67E,860E,4000
000BA4	0800 0080 70F0 FE40 0430 F078 0000 0000 F0F0 1070 10F8 4040 38F8	RAW 0800,0080,70F0,FE40,0430,F078,0000,0000,F0F0,1070,10F8,4040,38F8
000BBE	8878 8878 0000 1000 0078	RAW 8878,8878,0000,1000,0078


		GLCDCLS_NT7108C
000BC8	6B42	CLRF GLCD_YORDINATE,BANKED
000BCA	6B43	CLRF GLCD_YORDINATE_H,BANKED
000BCC	828B	BSF LATC,1,ACCESS
000BCE	908B	BCF LATC,0,ACCESS
000BD0	6B41	CLRF GLCD_COUNT,BANKED
		SYSFORLOOP11
000BD2	2B41	INCF GLCD_COUNT,F,BANKED
000BD4	6921	SETF CURRPAGE,BANKED
		SYSFORLOOP12
000BD6	2B21	INCF CURRPAGE,F,BANKED
000BD8	908D	BCF LATE,0,ACCESS
000BDA	0EB8	MOVLW 184
000BDC	1121	IORWF CURRPAGE,W,BANKED
000BDE	6F46	MOVWF LCDBYTE,BANKED
000BE0	D9C7	RCALL GLCDWRITEBYTE_NT7108C
000BE2	6920	SETF CURRCOL,BANKED
		SYSFORLOOP13
000BE4	2B20	INCF CURRCOL,F,BANKED
000BE6	908D	BCF LATE,0,ACCESS
000BE8	0E40	MOVLW 64
000BEA	1120	IORWF CURRCOL,W,BANKED
000BEC	6F46	MOVWF LCDBYTE,BANKED
000BEE	D9C0	RCALL GLCDWRITEBYTE_NT7108C
000BF0	808D	BSF LATE,0,ACCESS
000BF2	6B46	CLRF LCDBYTE,BANKED
000BF4	D9BD	RCALL GLCDWRITEBYTE_NT7108C
000BF6	0E3F	MOVLW 63
000BF8	5D20	SUBWF CURRCOL,W,BANKED
000BFA	A0D8	BTFSS STATUS, C,ACCESS
000BFC	D7F3	BRA SYSFORLOOP13
		ENDIF31
		SYSFORLOOPEND13
000BFE	0E07	MOVLW 7
000C00	5D21	SUBWF CURRPAGE,W,BANKED
000C02	A0D8	BTFSS STATUS, C,ACCESS
000C04	D7E8	BRA SYSFORLOOP12
		ENDIF32
		SYSFORLOOPEND12
000C06	928B	BCF LATC,1,ACCESS
000C08	808B	BSF LATC,0,ACCESS
000C0A	0E02	MOVLW 2
000C0C	5D41	SUBWF GLCD_COUNT,W,BANKED
000C0E	A0D8	BTFSS STATUS, C,ACCESS
000C10	D7E0	BRA SYSFORLOOP11
		ENDIF33
		SYSFORLOOPEND11
000C12	928B	BCF LATC,1,ACCESS
000C14	908B	BCF LATC,0,ACCESS
000C16	0012	RETURN


		GLCDDRAWCHAR
000C18	C04B F005	MOVFF LINECOLOUR,SYSWORDTEMPA
000C1C	C04C F006	MOVFF LINECOLOUR_H,SYSWORDTEMPA_H
000C20	C036 F009	MOVFF GLCDFOREGROUND,SYSWORDTEMPB
000C24	C037 F00A	MOVFF GLCDFOREGROUND_H,SYSWORDTEMPB_H
000C28	EC00 F00B	CALL SYSCOMPEQUAL16
000C2C	1E00	COMF SYSBYTETEMPX,F,ACCESS
000C2E	A000	BTFSS SYSBYTETEMPX,0,ACCESS
000C30	D005	BRA ENDIF9
000C32	0E01	MOVLW 1
000C34	6F2C	MOVWF GLCDBACKGROUND,BANKED
000C36	6B2D	CLRF GLCDBACKGROUND_H,BANKED
000C38	6B36	CLRF GLCDFOREGROUND,BANKED
000C3A	6B37	CLRF GLCDFOREGROUND_H,BANKED
		ENDIF9
000C3C	0E0F	MOVLW 15
000C3E	5F10	SUBWF CHARCODE,F,BANKED
000C40	6B11	CLRF CHARCOL,BANKED
000C42	6B12	CLRF CHARCOL_H,BANKED
000C44	C010 F005	MOVFF CHARCODE,SYSBYTETEMPA
000C48	0EB2	MOVLW 178
000C4A	6E09	MOVWF SYSBYTETEMPB,ACCESS
000C4C	EC18 F00B	CALL SYSCOMPLESSTHAN
000C50	1E00	COMF SYSBYTETEMPX,F,ACCESS
000C52	C000 F091	MOVFF SYSBYTETEMPX,SYSTEMP1
000C56	C010 F009	MOVFF CHARCODE,SYSBYTETEMPB
000C5A	0ECA	MOVLW 202
000C5C	6E05	MOVWF SYSBYTETEMPA,ACCESS
000C5E	EC18 F00B	CALL SYSCOMPLESSTHAN
000C62	1E00	COMF SYSBYTETEMPX,F,ACCESS
000C64	5191	MOVF SYSTEMP1,W,BANKED
000C66	1400	ANDWF SYSBYTETEMPX,W,ACCESS
000C68	6F95	MOVWF SYSTEMP2,BANKED
000C6A	A195	BTFSS SYSTEMP2,0,BANKED
000C6C	D004	BRA ENDIF10
000C6E	0E01	MOVLW 1
000C70	5F16	SUBWF CHARLOCY,F,BANKED
000C72	0E00	MOVLW 0
000C74	5B17	SUBWFB CHARLOCY_H,F,BANKED
		ENDIF10
000C76	6B1D	CLRF CURRCHARCOL,BANKED
		SYSFORLOOP5
000C78	2B1D	INCF CURRCHARCOL,F,BANKED
		SYSSELECT1CASE1
000C7A	051D	DECF CURRCHARCOL,W,BANKED
000C7C	A4D8	BTFSS STATUS, Z,ACCESS
000C7E	D005	BRA SYSSELECT1CASE2
000C80	C010 F007	MOVFF CHARCODE,SYSSTRINGA
000C84	DE43	RCALL GLCDCHARCOL3
000C86	6F1F	MOVWF CURRCHARVAL,BANKED
000C88	D023	BRA SYSSELECTEND1
		SYSSELECT1CASE2
000C8A	0E02	MOVLW 2
000C8C	5D1D	SUBWF CURRCHARCOL,W,BANKED
000C8E	A4D8	BTFSS STATUS, Z,ACCESS
000C90	D005	BRA SYSSELECT1CASE3
000C92	C010 F007	MOVFF CHARCODE,SYSSTRINGA
000C96	DE80	RCALL GLCDCHARCOL4
000C98	6F1F	MOVWF CURRCHARVAL,BANKED
000C9A	D01A	BRA SYSSELECTEND1
		SYSSELECT1CASE3
000C9C	0E03	MOVLW 3
000C9E	5D1D	SUBWF CURRCHARCOL,W,BANKED
000CA0	A4D8	BTFSS STATUS, Z,ACCESS
000CA2	D005	BRA SYSSELECT1CASE4
000CA4	C010 F007	MOVFF CHARCODE,SYSSTRINGA
000CA8	DEBD	RCALL GLCDCHARCOL5
000CAA	6F1F	MOVWF CURRCHARVAL,BANKED
000CAC	D011	BRA SYSSELECTEND1
		SYSSELECT1CASE4
000CAE	0E04	MOVLW 4
000CB0	5D1D	SUBWF CURRCHARCOL,W,BANKED
000CB2	A4D8	BTFSS STATUS, Z,ACCESS
000CB4	D005	BRA SYSSELECT1CASE5
000CB6	C010 F007	MOVFF CHARCODE,SYSSTRINGA
000CBA	DEFA	RCALL GLCDCHARCOL6
000CBC	6F1F	MOVWF CURRCHARVAL,BANKED
000CBE	D008	BRA SYSSELECTEND1
		SYSSELECT1CASE5
000CC0	0E05	MOVLW 5
000CC2	5D1D	SUBWF CURRCHARCOL,W,BANKED
000CC4	A4D8	BTFSS STATUS, Z,ACCESS
000CC6	D004	BRA SYSSELECTEND1
000CC8	C010 F007	MOVFF CHARCODE,SYSSTRINGA
000CCC	DF37	RCALL GLCDCHARCOL7
000CCE	6F1F	MOVWF CURRCHARVAL,BANKED
		SYSSELECTEND1
000CD0	6B18	CLRF CHARROW,BANKED
000CD2	6B19	CLRF CHARROW_H,BANKED
000CD4	6B1E	CLRF CURRCHARROW,BANKED
		SYSFORLOOP6
000CD6	2B1E	INCF CURRCHARROW,F,BANKED
000CD8	6B13	CLRF CHARCOLS,BANKED
000CDA	6B1B	CLRF COL,BANKED
000CDC	0E01	MOVLW 1
000CDE	5D34	SUBWF GLCDFNTDEFAULTSIZE,W,BANKED
000CE0	A0D8	BTFSS STATUS, C,ACCESS
000CE2	D049	BRA SYSFORLOOPEND7
		ENDIF11
		SYSFORLOOP7
000CE4	2B1B	INCF COL,F,BANKED
000CE6	6B1A	CLRF CHARROWS,BANKED
000CE8	6B6E	CLRF ROW,BANKED
000CEA	0E01	MOVLW 1
000CEC	5D34	SUBWF GLCDFNTDEFAULTSIZE,W,BANKED
000CEE	A0D8	BTFSS STATUS, C,ACCESS
000CF0	D03D	BRA SYSFORLOOPEND8
		ENDIF12
		SYSFORLOOP8
000CF2	2B6E	INCF ROW,F,BANKED
000CF4	A11F	BTFSS CURRCHARVAL,0,BANKED
000CF6	D012	BRA ELSE13_1
000CF8	5111	MOVF CHARCOL,W,BANKED
000CFA	2514	ADDWF CHARLOCX,W,BANKED
000CFC	6F91	MOVWF SYSTEMP1,BANKED
000CFE	5113	MOVF CHARCOLS,W,BANKED
000D00	2591	ADDWF SYSTEMP1,W,BANKED
000D02	6F3F	MOVWF GLCDX,BANKED
000D04	5118	MOVF CHARROW,W,BANKED
000D06	2516	ADDWF CHARLOCY,W,BANKED
000D08	6F91	MOVWF SYSTEMP1,BANKED
000D0A	511A	MOVF CHARROWS,W,BANKED
000D0C	2591	ADDWF SYSTEMP1,W,BANKED
000D0E	6F40	MOVWF GLCDY,BANKED
000D10	C04B F030	MOVFF LINECOLOUR,GLCDCOLOUR
000D14	C04C F031	MOVFF LINECOLOUR_H,GLCDCOLOUR_H
000D18	DB79	RCALL PSET_NT7108C
000D1A	D011	BRA ENDIF13
		ELSE13_1
000D1C	5111	MOVF CHARCOL,W,BANKED
000D1E	2514	ADDWF CHARLOCX,W,BANKED
000D20	6F91	MOVWF SYSTEMP1,BANKED
000D22	5113	MOVF CHARCOLS,W,BANKED
000D24	2591	ADDWF SYSTEMP1,W,BANKED
000D26	6F3F	MOVWF GLCDX,BANKED
000D28	5118	MOVF CHARROW,W,BANKED
000D2A	2516	ADDWF CHARLOCY,W,BANKED
000D2C	6F91	MOVWF SYSTEMP1,BANKED
000D2E	511A	MOVF CHARROWS,W,BANKED
000D30	2591	ADDWF SYSTEMP1,W,BANKED
000D32	6F40	MOVWF GLCDY,BANKED
000D34	C02C F030	MOVFF GLCDBACKGROUND,GLCDCOLOUR
000D38	C02D F031	MOVFF GLCDBACKGROUND_H,GLCDCOLOUR_H
000D3C	DB67	RCALL PSET_NT7108C
		ENDIF13
000D3E	5135	MOVF GLCDFONTWIDTH,W,BANKED
000D40	0334	MULWF GLCDFNTDEFAULTSIZE,BANKED
000D42	CFF3 F091	MOVFF PRODL,SYSTEMP1
000D46	5191	MOVF SYSTEMP1,W,BANKED
000D48	2514	ADDWF CHARLOCX,W,BANKED
000D4A	6F3F	MOVWF GLCDX,BANKED
000D4C	5118	MOVF CHARROW,W,BANKED
000D4E	2516	ADDWF CHARLOCY,W,BANKED
000D50	6F91	MOVWF SYSTEMP1,BANKED
000D52	511A	MOVF CHARROWS,W,BANKED
000D54	2591	ADDWF SYSTEMP1,W,BANKED
000D56	6F40	MOVWF GLCDY,BANKED
000D58	C02C F030	MOVFF GLCDBACKGROUND,GLCDCOLOUR
000D5C	C02D F031	MOVFF GLCDBACKGROUND_H,GLCDCOLOUR_H
000D60	DB55	RCALL PSET_NT7108C
000D62	2B1A	INCF CHARROWS,F,BANKED
000D64	5134	MOVF GLCDFNTDEFAULTSIZE,W,BANKED
000D66	5D6E	SUBWF ROW,W,BANKED
000D68	A0D8	BTFSS STATUS, C,ACCESS
000D6A	D7C3	BRA SYSFORLOOP8
		ENDIF14
		SYSFORLOOPEND8
000D6C	2B13	INCF CHARCOLS,F,BANKED
000D6E	5134	MOVF GLCDFNTDEFAULTSIZE,W,BANKED
000D70	5D1B	SUBWF COL,W,BANKED
000D72	A0D8	BTFSS STATUS, C,ACCESS
000D74	D7B7	BRA SYSFORLOOP7
		ENDIF15
		SYSFORLOOPEND7
000D76	331F	RRCF CURRCHARVAL,F,BANKED
000D78	5134	MOVF GLCDFNTDEFAULTSIZE,W,BANKED
000D7A	2718	ADDWF CHARROW,F,BANKED
000D7C	0E00	MOVLW 0
000D7E	2319	ADDWFC CHARROW_H,F,BANKED
000D80	0E08	MOVLW 8
000D82	5D1E	SUBWF CURRCHARROW,W,BANKED
000D84	A0D8	BTFSS STATUS, C,ACCESS
000D86	D7A7	BRA SYSFORLOOP6
		ENDIF16
		SYSFORLOOPEND6
000D88	5134	MOVF GLCDFNTDEFAULTSIZE,W,BANKED
000D8A	2711	ADDWF CHARCOL,F,BANKED
000D8C	0E00	MOVLW 0
000D8E	2312	ADDWFC CHARCOL_H,F,BANKED
000D90	0E05	MOVLW 5
000D92	5D1D	SUBWF CURRCHARCOL,W,BANKED
000D94	A0D8	BTFSS STATUS, C,ACCESS
000D96	D770	BRA SYSFORLOOP5
		ENDIF17
		SYSFORLOOPEND5
000D98	6B2C	CLRF GLCDBACKGROUND,BANKED
000D9A	6B2D	CLRF GLCDBACKGROUND_H,BANKED
000D9C	0E01	MOVLW 1
000D9E	6F36	MOVWF GLCDFOREGROUND,BANKED
000DA0	6B37	CLRF GLCDFOREGROUND_H,BANKED
000DA2	0012	RETURN


		GLCDDRAWSTRING
000DA4	C070 F039	MOVFF STRINGLOCX,GLCDPRINTLOC
000DA8	6B3A	CLRF GLCDPRINTLOC_H,BANKED
000DAA	6B9D	CLRF XCHAR,BANKED
000DAC	C075 FFE9	MOVFF SYSCHARSHANDLER,AFSR0
000DB0	C076 FFEA	MOVFF SYSCHARSHANDLER_H,AFSR0_H
000DB4	0E01	MOVLW 1
000DB6	5CEF	SUBWF INDF0,W,ACCESS
000DB8	A0D8	BTFSS STATUS, C,ACCESS
000DBA	D026	BRA SYSFORLOOPEND4
		ENDIF7
		SYSFORLOOP4
000DBC	2B9D	INCF XCHAR,F,BANKED
000DBE	C039 F014	MOVFF GLCDPRINTLOC,CHARLOCX
000DC2	C03A F015	MOVFF GLCDPRINTLOC_H,CHARLOCX_H
000DC6	519D	MOVF XCHAR,W,BANKED
000DC8	2575	ADDWF SYSCHARSHANDLER,W,BANKED
000DCA	6EE9	MOVWF AFSR0,ACCESS
000DCC	0E00	MOVLW 0
000DCE	2176	ADDWFC SYSCHARSHANDLER_H,W,BANKED
000DD0	6EEA	MOVWF AFSR0_H,ACCESS
000DD2	CFEF F010	MOVFF INDF0,CHARCODE
000DD6	DF20	RCALL GLCDDRAWCHAR
000DD8	5135	MOVF GLCDFONTWIDTH,W,BANKED
000DDA	0334	MULWF GLCDFNTDEFAULTSIZE,BANKED
000DDC	CFF3 F091	MOVFF PRODL,SYSTEMP1
000DE0	5191	MOVF SYSTEMP1,W,BANKED
000DE2	2539	ADDWF GLCDPRINTLOC,W,BANKED
000DE4	6F95	MOVWF SYSTEMP2,BANKED
000DE6	0E00	MOVLW 0
000DE8	213A	ADDWFC GLCDPRINTLOC_H,W,BANKED
000DEA	6F96	MOVWF SYSTEMP2_H,BANKED
000DEC	0E01	MOVLW 1
000DEE	2595	ADDWF SYSTEMP2,W,BANKED
000DF0	6F39	MOVWF GLCDPRINTLOC,BANKED
000DF2	0E00	MOVLW 0
000DF4	2196	ADDWFC SYSTEMP2_H,W,BANKED
000DF6	6F3A	MOVWF GLCDPRINTLOC_H,BANKED
000DF8	C075 FFE9	MOVFF SYSCHARSHANDLER,AFSR0
000DFC	C076 FFEA	MOVFF SYSCHARSHANDLER_H,AFSR0_H
000E00	50EF	MOVF INDF0,W,ACCESS
000E02	5D9D	SUBWF XCHAR,W,BANKED
000E04	A0D8	BTFSS STATUS, C,ACCESS
000E06	D7DA	BRA SYSFORLOOP4
		ENDIF8
		SYSFORLOOPEND4
000E08	0012	RETURN


		GLCDPRINT3
000E0A	C077 FFE9	MOVFF SYSLCDPRINTDATAHANDLER,AFSR0
000E0E	C078 FFEA	MOVFF SYSLCDPRINTDATAHANDLER_H,AFSR0_H
000E12	CFEF F038	MOVFF INDF0,GLCDPRINTLEN
000E16	5338	MOVF GLCDPRINTLEN,F,BANKED
000E18	B4D8	BTFSC STATUS, Z,ACCESS
000E1A	0012	RETURN
		ENDIF2
000E1C	C068 F039	MOVFF PRINTLOCX,GLCDPRINTLOC
000E20	C069 F03A	MOVFF PRINTLOCX_H,GLCDPRINTLOC_H
000E24	6B3B	CLRF GLCDPRINT_STRING_COUNTER,BANKED
000E26	0E01	MOVLW 1
000E28	5D38	SUBWF GLCDPRINTLEN,W,BANKED
000E2A	A0D8	BTFSS STATUS, C,ACCESS
000E2C	D02A	BRA SYSFORLOOPEND2
		ENDIF3
		SYSFORLOOP2
000E2E	2B3B	INCF GLCDPRINT_STRING_COUNTER,F,BANKED
000E30	C039 F014	MOVFF GLCDPRINTLOC,CHARLOCX
000E34	C03A F015	MOVFF GLCDPRINTLOC_H,CHARLOCX_H
000E38	C06A F016	MOVFF PRINTLOCY,CHARLOCY
000E3C	C06B F017	MOVFF PRINTLOCY_H,CHARLOCY_H
000E40	513B	MOVF GLCDPRINT_STRING_COUNTER,W,BANKED
000E42	2577	ADDWF SYSLCDPRINTDATAHANDLER,W,BANKED
000E44	6EE9	MOVWF AFSR0,ACCESS
000E46	0E00	MOVLW 0
000E48	2178	ADDWFC SYSLCDPRINTDATAHANDLER_H,W,BANKED
000E4A	6EEA	MOVWF AFSR0_H,ACCESS
000E4C	CFEF F010	MOVFF INDF0,CHARCODE
000E50	C036 F04B	MOVFF GLCDFOREGROUND,LINECOLOUR
000E54	C037 F04C	MOVFF GLCDFOREGROUND_H,LINECOLOUR_H
000E58	DEDF	RCALL GLCDDRAWCHAR
000E5A	5135	MOVF GLCDFONTWIDTH,W,BANKED
000E5C	0334	MULWF GLCDFNTDEFAULTSIZE,BANKED
000E5E	CFF3 F091	MOVFF PRODL,SYSTEMP1
000E62	5191	MOVF SYSTEMP1,W,BANKED
000E64	2539	ADDWF GLCDPRINTLOC,W,BANKED
000E66	6F95	MOVWF SYSTEMP2,BANKED
000E68	0E00	MOVLW 0
000E6A	213A	ADDWFC GLCDPRINTLOC_H,W,BANKED
000E6C	6F96	MOVWF SYSTEMP2_H,BANKED
000E6E	0E01	MOVLW 1
000E70	2595	ADDWF SYSTEMP2,W,BANKED
000E72	6F39	MOVWF GLCDPRINTLOC,BANKED
000E74	0E00	MOVLW 0
000E76	2196	ADDWFC SYSTEMP2_H,W,BANKED
000E78	6F3A	MOVWF GLCDPRINTLOC_H,BANKED
000E7A	5138	MOVF GLCDPRINTLEN,W,BANKED
000E7C	5D3B	SUBWF GLCDPRINT_STRING_COUNTER,W,BANKED
000E7E	A0D8	BTFSS STATUS, C,ACCESS
000E80	D7D6	BRA SYSFORLOOP2
		ENDIF4
		SYSFORLOOPEND2
000E82	0012	RETURN


		GLCDPRINT5
000E84	6B85	CLRF SYSPRINTBUFFLEN,BANKED
		SYSDOLOOP_S2
000E86	2B85	INCF SYSPRINTBUFFLEN,F,BANKED
000E88	EE0D F0CC	LFSR 0,SYSPRINTBUFFER
000E8C	5185	MOVF SYSPRINTBUFFLEN,W,BANKED
000E8E	26E9	ADDWF AFSR0,F,ACCESS
000E90	0E00	MOVLW 0
000E92	22EA	ADDWFC AFSR0_H,F,ACCESS
000E94	C047 F005	MOVFF LCDVALUE,SYSLONGTEMPA
000E98	C048 F006	MOVFF LCDVALUE_H,SYSLONGTEMPA_H
000E9C	C049 F007	MOVFF LCDVALUE_U,SYSLONGTEMPA_U
000EA0	C04A F008	MOVFF LCDVALUE_E,SYSLONGTEMPA_E
000EA4	0E0A	MOVLW 10
000EA6	6E09	MOVWF SYSLONGTEMPB,ACCESS
000EA8	6A0A	CLRF SYSLONGTEMPB_H,ACCESS
000EAA	6A0B	CLRF SYSLONGTEMPB_U,ACCESS
000EAC	6A0C	CLRF SYSLONGTEMPB_E,ACCESS
000EAE	ECAC F00B	CALL SYSDIVSUB32
000EB2	C000 FFEF	MOVFF SYSLONGTEMPX,INDF0
000EB6	C005 F047	MOVFF SYSCALCTEMPA,LCDVALUE
000EBA	C006 F048	MOVFF SYSCALCTEMPA_H,LCDVALUE_H
000EBE	C007 F049	MOVFF SYSCALCTEMPA_U,LCDVALUE_U
000EC2	C008 F04A	MOVFF SYSCALCTEMPA_E,LCDVALUE_E
000EC6	C047 F005	MOVFF LCDVALUE,SYSLONGTEMPA
000ECA	C048 F006	MOVFF LCDVALUE_H,SYSLONGTEMPA_H
000ECE	C049 F007	MOVFF LCDVALUE_U,SYSLONGTEMPA_U
000ED2	C04A F008	MOVFF LCDVALUE_E,SYSLONGTEMPA_E
000ED6	6A09	CLRF SYSLONGTEMPB,ACCESS
000ED8	6A0A	CLRF SYSLONGTEMPB_H,ACCESS
000EDA	6A0B	CLRF SYSLONGTEMPB_U,ACCESS
000EDC	6A0C	CLRF SYSLONGTEMPB_E,ACCESS
000EDE	DB99	RCALL SYSCOMPEQUAL32
000EE0	1E00	COMF SYSBYTETEMPX,F,ACCESS
000EE2	B000	BTFSC SYSBYTETEMPX,0,ACCESS
000EE4	D7D0	BRA SYSDOLOOP_S2
		SYSDOLOOP_E2
000EE6	C068 F039	MOVFF PRINTLOCX,GLCDPRINTLOC
000EEA	C069 F03A	MOVFF PRINTLOCX_H,GLCDPRINTLOC_H
000EEE	2985	INCF SYSPRINTBUFFLEN,W,BANKED
000EF0	6F3B	MOVWF GLCDPRINT_STRING_COUNTER,BANKED
000EF2	0E01	MOVLW 1
000EF4	5D85	SUBWF SYSPRINTBUFFLEN,W,BANKED
000EF6	A0D8	BTFSS STATUS, C,ACCESS
000EF8	D02B	BRA SYSFORLOOPEND3
		ENDIF5
		SYSFORLOOP3
000EFA	073B	DECF GLCDPRINT_STRING_COUNTER,F,BANKED
000EFC	C039 F014	MOVFF GLCDPRINTLOC,CHARLOCX
000F00	C03A F015	MOVFF GLCDPRINTLOC_H,CHARLOCX_H
000F04	C06A F016	MOVFF PRINTLOCY,CHARLOCY
000F08	C06B F017	MOVFF PRINTLOCY_H,CHARLOCY_H
000F0C	EE0D F0CC	LFSR 0,SYSPRINTBUFFER
000F10	513B	MOVF GLCDPRINT_STRING_COUNTER,W,BANKED
000F12	26E9	ADDWF AFSR0,F,ACCESS
000F14	0E00	MOVLW 0
000F16	22EA	ADDWFC AFSR0_H,F,ACCESS
000F18	0E30	MOVLW 48
000F1A	24EF	ADDWF INDF0,W,ACCESS
000F1C	6F10	MOVWF CHARCODE,BANKED
000F1E	C036 F04B	MOVFF GLCDFOREGROUND,LINECOLOUR
000F22	C037 F04C	MOVFF GLCDFOREGROUND_H,LINECOLOUR_H
000F26	DE78	RCALL GLCDDRAWCHAR
000F28	5135	MOVF GLCDFONTWIDTH,W,BANKED
000F2A	0334	MULWF GLCDFNTDEFAULTSIZE,BANKED
000F2C	CFF3 F091	MOVFF PRODL,SYSTEMP1
000F30	5191	MOVF SYSTEMP1,W,BANKED
000F32	2539	ADDWF GLCDPRINTLOC,W,BANKED
000F34	6F95	MOVWF SYSTEMP2,BANKED
000F36	0E00	MOVLW 0
000F38	213A	ADDWFC GLCDPRINTLOC_H,W,BANKED
000F3A	6F96	MOVWF SYSTEMP2_H,BANKED
000F3C	0E01	MOVLW 1
000F3E	2595	ADDWF SYSTEMP2,W,BANKED
000F40	6F39	MOVWF GLCDPRINTLOC,BANKED
000F42	0E00	MOVLW 0
000F44	2196	ADDWFC SYSTEMP2_H,W,BANKED
000F46	6F3A	MOVWF GLCDPRINTLOC_H,BANKED
000F48	513B	MOVF GLCDPRINT_STRING_COUNTER,W,BANKED
000F4A	0801	SUBLW 1
000F4C	A0D8	BTFSS STATUS, C,ACCESS
000F4E	D7D5	BRA SYSFORLOOP3
		ENDIF6
		SYSFORLOOPEND3
000F50	0012	RETURN


		FN_GLCDREADBYTE_NT7108C
000F52	6895	SETF TRISD,ACCESS
000F54	868B	BSF LATC,3,ACCESS
000F56	848D	BSF LATE,2,ACCESS
000F58	0E25	MOVLW 37
000F5A	6E00	MOVWF DELAYTEMP,ACCESS
		DELAYUS3
000F5C	2E00	DECFSZ DELAYTEMP,F,ACCESS
000F5E	D7FE	BRA DELAYUS3
000F60	948D	BCF LATE,2,ACCESS
000F62	0E25	MOVLW 37
000F64	6E00	MOVWF DELAYTEMP,ACCESS
		DELAYUS4
000F66	2E00	DECFSZ DELAYTEMP,F,ACCESS
000F68	D7FE	BRA DELAYUS4
000F6A	CF83 F03C	MOVFF PORTD,GLCDREADBYTE_NT7108C
000F6E	0012	RETURN


		GLCDWRITEBYTE_NT7108C
000F70	968B	BCF LATC,3,ACCESS
000F72	6A95	CLRF TRISD,ACCESS
000F74	C046 FF83	MOVFF LCDBYTE,PORTD
000F78	0E25	MOVLW 37
000F7A	6E00	MOVWF DELAYTEMP,ACCESS
		DELAYUS1
000F7C	2E00	DECFSZ DELAYTEMP,F,ACCESS
000F7E	D7FE	BRA DELAYUS1
000F80	848D	BSF LATE,2,ACCESS
000F82	0E25	MOVLW 37
000F84	6E00	MOVWF DELAYTEMP,ACCESS
		DELAYUS2
000F86	2E00	DECFSZ DELAYTEMP,F,ACCESS
000F88	D7FE	BRA DELAYUS2
000F8A	948D	BCF LATE,2,ACCESS
000F8C	0012	RETURN


		FN_HEX
000F8E	0E02	MOVLW 2
000000	010D	BANKSEL SYSHEX_0
000F92	6FC2	MOVWF SYSHEX_0,BANKED
000F94	0E0F	MOVLW 15
000000	0100	BANKSEL SYSVALTEMP
000F98	1599	ANDWF SYSVALTEMP,W,BANKED
000F9A	6F8B	MOVWF SYSSTRINGTEMP,BANKED
000F9C	0809	SUBLW 9
000F9E	B0D8	BTFSC STATUS, C,ACCESS
000FA0	D002	BRA ENDIF59
000FA2	0E07	MOVLW 7
000FA4	278B	ADDWF SYSSTRINGTEMP,F,BANKED
		ENDIF59
000FA6	0E30	MOVLW 48
000FA8	258B	ADDWF SYSSTRINGTEMP,W,BANKED
000000	010D	BANKSEL SYSHEX_2
000FAC	6FC4	MOVWF SYSHEX_2,BANKED
000000	0100	BANKSEL SYSSTRINGTEMP
000FB0	6B8B	CLRF SYSSTRINGTEMP,BANKED
		SYSFORLOOP16
000FB2	2B8B	INCF SYSSTRINGTEMP,F,BANKED
000FB4	3399	RRCF SYSVALTEMP,F,BANKED
000FB6	0E04	MOVLW 4
000FB8	5D8B	SUBWF SYSSTRINGTEMP,W,BANKED
000FBA	A0D8	BTFSS STATUS, C,ACCESS
000FBC	D7FA	BRA SYSFORLOOP16
		ENDIF60
		SYSFORLOOPEND16
000FBE	0E0F	MOVLW 15
000FC0	1599	ANDWF SYSVALTEMP,W,BANKED
000FC2	6F8B	MOVWF SYSSTRINGTEMP,BANKED
000FC4	0809	SUBLW 9
000FC6	B0D8	BTFSC STATUS, C,ACCESS
000FC8	D002	BRA ENDIF61
000FCA	0E07	MOVLW 7
000FCC	278B	ADDWF SYSSTRINGTEMP,F,BANKED
		ENDIF61
000FCE	0E30	MOVLW 48
000FD0	258B	ADDWF SYSSTRINGTEMP,W,BANKED
000000	010D	BANKSEL SYSHEX_1
000FD4	6FC3	MOVWF SYSHEX_1,BANKED
000000	0100	BANKSEL 0
000FD8	0012	RETURN


		HSERPRINTSTRINGCRLF
000FDA	C086 FFE9	MOVFF SYSPRINTDATAHANDLER,AFSR0
000FDE	C087 FFEA	MOVFF SYSPRINTDATAHANDLER_H,AFSR0_H
000FE2	CFEF F067	MOVFF INDF0,PRINTLEN
000FE6	5367	MOVF PRINTLEN,F,BANKED
000FE8	B4D8	BTFSC STATUS, Z,ACCESS
000FEA	D013	BRA ENDIF69
000FEC	6B88	CLRF SYSPRINTTEMP,BANKED
000FEE	0E01	MOVLW 1
000FF0	5D67	SUBWF PRINTLEN,W,BANKED
000FF2	A0D8	BTFSS STATUS, C,ACCESS
000FF4	D00E	BRA SYSFORLOOPEND20
		ENDIF70
		SYSFORLOOP20
000FF6	2B88	INCF SYSPRINTTEMP,F,BANKED
000FF8	5188	MOVF SYSPRINTTEMP,W,BANKED
000FFA	2586	ADDWF SYSPRINTDATAHANDLER,W,BANKED
000FFC	6EE9	MOVWF AFSR0,ACCESS
000FFE	0E00	MOVLW 0
001000	2187	ADDWFC SYSPRINTDATAHANDLER_H,W,BANKED
001002	6EEA	MOVWF AFSR0_H,ACCESS
001004	CFEF F06F	MOVFF INDF0,SERDATA
001008	D80A	RCALL HSERSEND
00100A	5167	MOVF PRINTLEN,W,BANKED
00100C	5D88	SUBWF SYSPRINTTEMP,W,BANKED
00100E	A0D8	BTFSS STATUS, C,ACCESS
001010	D7F2	BRA SYSFORLOOP20
		ENDIF71
		SYSFORLOOPEND20
		ENDIF69
001012	0E0D	MOVLW 13
001014	6F6F	MOVWF SERDATA,BANKED
001016	D803	RCALL HSERSEND
001018	0E0A	MOVLW 10
00101A	6F6F	MOVWF SERDATA,BANKED
00101C	D000	BRA HSERSEND


		HSERSEND
00101E	051C	DECF COMPORT,W,BANKED
001020	A4D8	BTFSS STATUS, Z,ACCESS
001022	D00C	BRA ENDIF74
		SYSWAITLOOP1
001024	A89E	BTFSS PIR1,TXIF,ACCESS
001026	D7FE	BRA SYSWAITLOOP1
001028	C06F FFAD	MOVFF SERDATA,TXREG
		SYSWAITLOOP2
00102C	A2AC	BTFSS TXSTA1,TRMT,ACCESS
00102E	D7FE	BRA SYSWAITLOOP2
001030	0E01	MOVLW 1
001032	6E02	MOVWF SYSWAITTEMPMS,ACCESS
001034	6A03	CLRF SYSWAITTEMPMS_H,ACCESS
001036	EC78 F003	CALL DELAY_MS
00103A	0012	RETURN
		ENDIF74
00103C	0012	RETURN


		INITGLCD_NT7108C
00103E	9096	BCF TRISE,0,ACCESS
001040	9694	BCF TRISC,3,ACCESS
001042	9496	BCF TRISE,2,ACCESS
001044	9294	BCF TRISC,1,ACCESS
001046	9094	BCF TRISC,0,ACCESS
001048	9494	BCF TRISC,2,ACCESS
00104A	948B	BCF LATC,2,ACCESS
00104C	0E01	MOVLW 1
00104E	6E02	MOVWF SYSWAITTEMPMS,ACCESS
001050	6A03	CLRF SYSWAITTEMPMS_H,ACCESS
001052	EC78 F003	CALL DELAY_MS
001056	848B	BSF LATC,2,ACCESS
001058	0E01	MOVLW 1
00105A	6E02	MOVWF SYSWAITTEMPMS,ACCESS
00105C	6A03	CLRF SYSWAITTEMPMS_H,ACCESS
00105E	EC78 F003	CALL DELAY_MS
001062	928B	BCF LATC,1,ACCESS
001064	908B	BCF LATC,0,ACCESS
001066	948B	BCF LATC,2,ACCESS
001068	0E01	MOVLW 1
00106A	6E02	MOVWF SYSWAITTEMPMS,ACCESS
00106C	6A03	CLRF SYSWAITTEMPMS_H,ACCESS
00106E	EC78 F003	CALL DELAY_MS
001072	848B	BSF LATC,2,ACCESS
001074	0E01	MOVLW 1
001076	6E02	MOVWF SYSWAITTEMPMS,ACCESS
001078	6A03	CLRF SYSWAITTEMPMS_H,ACCESS
00107A	EC78 F003	CALL DELAY_MS
00107E	908D	BCF LATE,0,ACCESS
001080	0E3F	MOVLW 63
001082	6F46	MOVWF LCDBYTE,BANKED
001084	DF75	RCALL GLCDWRITEBYTE_NT7108C
001086	0EC0	MOVLW 192
001088	6F46	MOVWF LCDBYTE,BANKED
00108A	DF72	RCALL GLCDWRITEBYTE_NT7108C
00108C	928B	BCF LATC,1,ACCESS
00108E	908B	BCF LATC,0,ACCESS
001090	6B2C	CLRF GLCDBACKGROUND,BANKED
001092	6B2D	CLRF GLCDBACKGROUND_H,BANKED
001094	0E01	MOVLW 1
001096	6F36	MOVWF GLCDFOREGROUND,BANKED
001098	6B37	CLRF GLCDFOREGROUND_H,BANKED
00109A	0E05	MOVLW 5
00109C	6F35	MOVWF GLCDFONTWIDTH,BANKED
00109E	6B33	CLRF GLCDFNTDEFAULT,BANKED
0010A0	0E01	MOVLW 1
0010A2	6F34	MOVWF GLCDFNTDEFAULTSIZE,BANKED
0010A4	D591	BRA GLCDCLS_NT7108C


		INITSYS
0010A6	8CD3	BSF OSCCON,IRCF2,ACCESS
0010A8	8AD3	BSF OSCCON,IRCF1,ACCESS
0010AA	88D3	BSF OSCCON,IRCF0,ACCESS
0010AC	8C9B	BSF OSCTUNE,PLLEN,ACCESS
0010AE	6AE0	CLRF BSR,ACCESS
0010B0	6AF8	CLRF TBLPTRU,ACCESS
0010B2	9EC0	BCF ADCON2,ADFM,ACCESS
0010B4	90C2	BCF ADCON0,ADON,ACCESS
000000	010F	BANKSEL ANCON0
0010B8	915D	BCF ANCON0,ANSEL0,BANKED
0010BA	935D	BCF ANCON0,ANSEL1,BANKED
0010BC	955D	BCF ANCON0,ANSEL2,BANKED
0010BE	975D	BCF ANCON0,ANSEL3,BANKED
0010C0	995D	BCF ANCON0,ANSEL4,BANKED
0010C2	9B5D	BCF ANCON0,ANSEL5,BANKED
0010C4	9D5D	BCF ANCON0,ANSEL6,BANKED
0010C6	9F5D	BCF ANCON0,ANSEL7,BANKED
0010C8	915C	BCF ANCON1,ANSEL8,BANKED
0010CA	935C	BCF ANCON1,ANSEL9,BANKED
0010CC	955C	BCF ANCON1,ANSEL10,BANKED
0010CE	975C	BCF ANCON1,ANSEL11,BANKED
0010D0	995C	BCF ANCON1,ANSEL12,BANKED
0010D2	9B5C	BCF ANCON1,ANSEL13,BANKED
0010D4	9D5C	BCF ANCON1,ANSEL14,BANKED
0010D6	6A80	CLRF PORTA,ACCESS
0010D8	6A81	CLRF PORTB,ACCESS
0010DA	6A82	CLRF PORTC,ACCESS
0010DC	6A83	CLRF PORTD,ACCESS
0010DE	6A84	CLRF PORTE,ACCESS
000000	0100	BANKSEL 0
0010E2	0012	RETURN


		INITUSART
0010E4	0E01	MOVLW 1
0010E6	6F1C	MOVWF COMPORT,BANKED
0010E8	0E81	MOVLW 129
0010EA	6EAF	MOVWF SPBRG1,ACCESS
0010EC	0E06	MOVLW 6
0010EE	6E7D	MOVWF SPBRGH1,ACCESS
0010F0	86A7	BSF BAUDCON1,BRG16,ACCESS
0010F2	84AC	BSF TXSTA1,BRGH,ACCESS
0010F4	98AC	BCF TXSTA1,SYNC1,ACCESS
0010F6	8EAB	BSF RCSTA1,SPEN1,ACCESS
0010F8	88AB	BSF RCSTA1,CREN1,ACCESS
0010FA	8AAC	BSF TXSTA1,TXEN1,ACCESS
0010FC	0012	RETURN


		LINE
0010FE	6B4D	CLRF LINEDIFFX,BANKED
001100	6B4E	CLRF LINEDIFFX_H,BANKED
001102	6B51	CLRF LINEDIFFY,BANKED
001104	6B52	CLRF LINEDIFFY_H,BANKED
001106	6B57	CLRF LINESTEPX,BANKED
001108	6B58	CLRF LINESTEPX_H,BANKED
00110A	6B59	CLRF LINESTEPY,BANKED
00110C	6B5A	CLRF LINESTEPY_H,BANKED
00110E	6B4F	CLRF LINEDIFFX_X2,BANKED
001110	6B50	CLRF LINEDIFFX_X2_H,BANKED
001112	6B53	CLRF LINEDIFFY_X2,BANKED
001114	6B54	CLRF LINEDIFFY_X2_H,BANKED
001116	6B55	CLRF LINEERR,BANKED
001118	6B56	CLRF LINEERR_H,BANKED
00111A	515B	MOVF LINEX1,W,BANKED
00111C	5D5D	SUBWF LINEX2,W,BANKED
00111E	6F4D	MOVWF LINEDIFFX,BANKED
001120	515C	MOVF LINEX1_H,W,BANKED
001122	595E	SUBWFB LINEX2_H,W,BANKED
001124	6F4E	MOVWF LINEDIFFX_H,BANKED
001126	515F	MOVF LINEY1,W,BANKED
001128	5D61	SUBWF LINEY2,W,BANKED
00112A	6F51	MOVWF LINEDIFFY,BANKED
00112C	5160	MOVF LINEY1_H,W,BANKED
00112E	5962	SUBWFB LINEY2_H,W,BANKED
001130	6F52	MOVWF LINEDIFFY_H,BANKED
001132	C04D F009	MOVFF LINEDIFFX,SYSINTEGERTEMPB
001136	C04E F00A	MOVFF LINEDIFFX_H,SYSINTEGERTEMPB_H
00113A	6A05	CLRF SYSINTEGERTEMPA,ACCESS
00113C	6A06	CLRF SYSINTEGERTEMPA_H,ACCESS
00113E	DA8B	RCALL SYSCOMPLESSTHANINT
001140	A000	BTFSS SYSBYTETEMPX,0,ACCESS
001142	D004	BRA ELSE26_1
001144	0E01	MOVLW 1
001146	6F57	MOVWF LINESTEPX,BANKED
001148	6B58	CLRF LINESTEPX_H,BANKED
00114A	D002	BRA ENDIF26
		ELSE26_1
00114C	6957	SETF LINESTEPX,BANKED
00114E	6958	SETF LINESTEPX_H,BANKED
		ENDIF26
001150	C051 F009	MOVFF LINEDIFFY,SYSINTEGERTEMPB
001154	C052 F00A	MOVFF LINEDIFFY_H,SYSINTEGERTEMPB_H
001158	6A05	CLRF SYSINTEGERTEMPA,ACCESS
00115A	6A06	CLRF SYSINTEGERTEMPA_H,ACCESS
00115C	DA7C	RCALL SYSCOMPLESSTHANINT
00115E	A000	BTFSS SYSBYTETEMPX,0,ACCESS
001160	D004	BRA ELSE27_1
001162	0E01	MOVLW 1
001164	6F59	MOVWF LINESTEPY,BANKED
001166	6B5A	CLRF LINESTEPY_H,BANKED
001168	D002	BRA ENDIF27
		ELSE27_1
00116A	6959	SETF LINESTEPY,BANKED
00116C	695A	SETF LINESTEPY_H,BANKED
		ENDIF27
00116E	C057 F005	MOVFF LINESTEPX,SYSINTEGERTEMPA
001172	C058 F006	MOVFF LINESTEPX_H,SYSINTEGERTEMPA_H
001176	C04D F009	MOVFF LINEDIFFX,SYSINTEGERTEMPB
00117A	C04E F00A	MOVFF LINEDIFFX_H,SYSINTEGERTEMPB_H
00117E	DB76	RCALL SYSMULTSUBINT
001180	C000 F04D	MOVFF SYSINTEGERTEMPX,LINEDIFFX
001184	C001 F04E	MOVFF SYSINTEGERTEMPX_H,LINEDIFFX_H
001188	C059 F005	MOVFF LINESTEPY,SYSINTEGERTEMPA
00118C	C05A F006	MOVFF LINESTEPY_H,SYSINTEGERTEMPA_H
001190	C051 F009	MOVFF LINEDIFFY,SYSINTEGERTEMPB
001194	C052 F00A	MOVFF LINEDIFFY_H,SYSINTEGERTEMPB_H
001198	DB69	RCALL SYSMULTSUBINT
00119A	C000 F051	MOVFF SYSINTEGERTEMPX,LINEDIFFY
00119E	C001 F052	MOVFF SYSINTEGERTEMPX_H,LINEDIFFY_H
0011A2	C04D F005	MOVFF LINEDIFFX,SYSINTEGERTEMPA
0011A6	C04E F006	MOVFF LINEDIFFX_H,SYSINTEGERTEMPA_H
0011AA	0E02	MOVLW 2
0011AC	6E09	MOVWF SYSINTEGERTEMPB,ACCESS
0011AE	6A0A	CLRF SYSINTEGERTEMPB_H,ACCESS
0011B0	DB5D	RCALL SYSMULTSUBINT
0011B2	C000 F04F	MOVFF SYSINTEGERTEMPX,LINEDIFFX_X2
0011B6	C001 F050	MOVFF SYSINTEGERTEMPX_H,LINEDIFFX_X2_H
0011BA	C051 F005	MOVFF LINEDIFFY,SYSINTEGERTEMPA
0011BE	C052 F006	MOVFF LINEDIFFY_H,SYSINTEGERTEMPA_H
0011C2	0E02	MOVLW 2
0011C4	6E09	MOVWF SYSINTEGERTEMPB,ACCESS
0011C6	6A0A	CLRF SYSINTEGERTEMPB_H,ACCESS
0011C8	DB51	RCALL SYSMULTSUBINT
0011CA	C000 F053	MOVFF SYSINTEGERTEMPX,LINEDIFFY_X2
0011CE	C001 F054	MOVFF SYSINTEGERTEMPX_H,LINEDIFFY_X2_H
0011D2	C04D F005	MOVFF LINEDIFFX,SYSINTEGERTEMPA
0011D6	C04E F006	MOVFF LINEDIFFX_H,SYSINTEGERTEMPA_H
0011DA	C051 F009	MOVFF LINEDIFFY,SYSINTEGERTEMPB
0011DE	C052 F00A	MOVFF LINEDIFFY_H,SYSINTEGERTEMPB_H
0011E2	DA39	RCALL SYSCOMPLESSTHANINT
0011E4	1E00	COMF SYSBYTETEMPX,F,ACCESS
0011E6	A000	BTFSS SYSBYTETEMPX,0,ACCESS
0011E8	D046	BRA ELSE28_1
0011EA	514D	MOVF LINEDIFFX,W,BANKED
0011EC	5D53	SUBWF LINEDIFFY_X2,W,BANKED
0011EE	6F55	MOVWF LINEERR,BANKED
0011F0	514E	MOVF LINEDIFFX_H,W,BANKED
0011F2	5954	SUBWFB LINEDIFFY_X2_H,W,BANKED
0011F4	6F56	MOVWF LINEERR_H,BANKED
		SYSDOLOOP_S5
0011F6	C05B F005	MOVFF LINEX1,SYSWORDTEMPA
0011FA	C05C F006	MOVFF LINEX1_H,SYSWORDTEMPA_H
0011FE	C05D F009	MOVFF LINEX2,SYSWORDTEMPB
001202	C05E F00A	MOVFF LINEX2_H,SYSWORDTEMPB_H
001206	D9FC	RCALL SYSCOMPEQUAL16
001208	1E00	COMF SYSBYTETEMPX,F,ACCESS
00120A	A000	BTFSS SYSBYTETEMPX,0,ACCESS
00120C	D02A	BRA SYSDOLOOP_E5
00120E	C05B F03F	MOVFF LINEX1,GLCDX
001212	C05F F040	MOVFF LINEY1,GLCDY
001216	C04B F030	MOVFF LINECOLOUR,GLCDCOLOUR
00121A	C04C F031	MOVFF LINECOLOUR_H,GLCDCOLOUR_H
00121E	D8F6	RCALL PSET_NT7108C
001220	5157	MOVF LINESTEPX,W,BANKED
001222	275B	ADDWF LINEX1,F,BANKED
001224	5158	MOVF LINESTEPX_H,W,BANKED
001226	235C	ADDWFC LINEX1_H,F,BANKED
001228	C055 F005	MOVFF LINEERR,SYSINTEGERTEMPA
00122C	C056 F006	MOVFF LINEERR_H,SYSINTEGERTEMPA_H
001230	6A09	CLRF SYSINTEGERTEMPB,ACCESS
001232	6A0A	CLRF SYSINTEGERTEMPB_H,ACCESS
001234	DA10	RCALL SYSCOMPLESSTHANINT
001236	A000	BTFSS SYSBYTETEMPX,0,ACCESS
001238	D005	BRA ELSE29_1
00123A	5153	MOVF LINEDIFFY_X2,W,BANKED
00123C	2755	ADDWF LINEERR,F,BANKED
00123E	5154	MOVF LINEDIFFY_X2_H,W,BANKED
001240	2356	ADDWFC LINEERR_H,F,BANKED
001242	D00E	BRA ENDIF29
		ELSE29_1
001244	514F	MOVF LINEDIFFX_X2,W,BANKED
001246	5D53	SUBWF LINEDIFFY_X2,W,BANKED
001248	6F97	MOVWF SYSTEMP3,BANKED
00124A	5150	MOVF LINEDIFFX_X2_H,W,BANKED
00124C	5954	SUBWFB LINEDIFFY_X2_H,W,BANKED
00124E	6F98	MOVWF SYSTEMP3_H,BANKED
001250	5197	MOVF SYSTEMP3,W,BANKED
001252	2755	ADDWF LINEERR,F,BANKED
001254	5198	MOVF SYSTEMP3_H,W,BANKED
001256	2356	ADDWFC LINEERR_H,F,BANKED
001258	5159	MOVF LINESTEPY,W,BANKED
00125A	275F	ADDWF LINEY1,F,BANKED
00125C	515A	MOVF LINESTEPY_H,W,BANKED
00125E	2360	ADDWFC LINEY1_H,F,BANKED
		ENDIF29
001260	D7CA	BRA SYSDOLOOP_S5
		SYSDOLOOP_E5
001262	C05B F03F	MOVFF LINEX1,GLCDX
001266	C05F F040	MOVFF LINEY1,GLCDY
00126A	C04B F030	MOVFF LINECOLOUR,GLCDCOLOUR
00126E	C04C F031	MOVFF LINECOLOUR_H,GLCDCOLOUR_H
001272	D8CC	RCALL PSET_NT7108C
001274	D045	BRA ENDIF28
		ELSE28_1
001276	5151	MOVF LINEDIFFY,W,BANKED
001278	5D4F	SUBWF LINEDIFFX_X2,W,BANKED
00127A	6F55	MOVWF LINEERR,BANKED
00127C	5152	MOVF LINEDIFFY_H,W,BANKED
00127E	5950	SUBWFB LINEDIFFX_X2_H,W,BANKED
001280	6F56	MOVWF LINEERR_H,BANKED
		SYSDOLOOP_S6
001282	C05F F005	MOVFF LINEY1,SYSWORDTEMPA
001286	C060 F006	MOVFF LINEY1_H,SYSWORDTEMPA_H
00128A	C061 F009	MOVFF LINEY2,SYSWORDTEMPB
00128E	C062 F00A	MOVFF LINEY2_H,SYSWORDTEMPB_H
001292	D9B6	RCALL SYSCOMPEQUAL16
001294	1E00	COMF SYSBYTETEMPX,F,ACCESS
001296	A000	BTFSS SYSBYTETEMPX,0,ACCESS
001298	D02A	BRA SYSDOLOOP_E6
00129A	C05B F03F	MOVFF LINEX1,GLCDX
00129E	C05F F040	MOVFF LINEY1,GLCDY
0012A2	C04B F030	MOVFF LINECOLOUR,GLCDCOLOUR
0012A6	C04C F031	MOVFF LINECOLOUR_H,GLCDCOLOUR_H
0012AA	D8B0	RCALL PSET_NT7108C
0012AC	5159	MOVF LINESTEPY,W,BANKED
0012AE	275F	ADDWF LINEY1,F,BANKED
0012B0	515A	MOVF LINESTEPY_H,W,BANKED
0012B2	2360	ADDWFC LINEY1_H,F,BANKED
0012B4	C055 F005	MOVFF LINEERR,SYSINTEGERTEMPA
0012B8	C056 F006	MOVFF LINEERR_H,SYSINTEGERTEMPA_H
0012BC	6A09	CLRF SYSINTEGERTEMPB,ACCESS
0012BE	6A0A	CLRF SYSINTEGERTEMPB_H,ACCESS
0012C0	D9CA	RCALL SYSCOMPLESSTHANINT
0012C2	A000	BTFSS SYSBYTETEMPX,0,ACCESS
0012C4	D005	BRA ELSE30_1
0012C6	514F	MOVF LINEDIFFX_X2,W,BANKED
0012C8	2755	ADDWF LINEERR,F,BANKED
0012CA	5150	MOVF LINEDIFFX_X2_H,W,BANKED
0012CC	2356	ADDWFC LINEERR_H,F,BANKED
0012CE	D00E	BRA ENDIF30
		ELSE30_1
0012D0	5153	MOVF LINEDIFFY_X2,W,BANKED
0012D2	5D4F	SUBWF LINEDIFFX_X2,W,BANKED
0012D4	6F97	MOVWF SYSTEMP3,BANKED
0012D6	5154	MOVF LINEDIFFY_X2_H,W,BANKED
0012D8	5950	SUBWFB LINEDIFFX_X2_H,W,BANKED
0012DA	6F98	MOVWF SYSTEMP3_H,BANKED
0012DC	5197	MOVF SYSTEMP3,W,BANKED
0012DE	2755	ADDWF LINEERR,F,BANKED
0012E0	5198	MOVF SYSTEMP3_H,W,BANKED
0012E2	2356	ADDWFC LINEERR_H,F,BANKED
0012E4	5157	MOVF LINESTEPX,W,BANKED
0012E6	275B	ADDWF LINEX1,F,BANKED
0012E8	5158	MOVF LINESTEPX_H,W,BANKED
0012EA	235C	ADDWFC LINEX1_H,F,BANKED
		ENDIF30
0012EC	D7CA	BRA SYSDOLOOP_S6
		SYSDOLOOP_E6
0012EE	C05B F03F	MOVFF LINEX1,GLCDX
0012F2	C05F F040	MOVFF LINEY1,GLCDY
0012F6	C04B F030	MOVFF LINECOLOUR,GLCDCOLOUR
0012FA	C04C F031	MOVFF LINECOLOUR_H,GLCDCOLOUR_H
0012FE	D886	RCALL PSET_NT7108C
		ENDIF28
001300	0012	RETURN


		FN_PAD
001302	C08F FFE9	MOVFF SYSSYSINSTRINGHANDLER,AFSR0
001306	C090 FFEA	MOVFF SYSSYSINSTRINGHANDLER_H,AFSR0_H
00130A	518C	MOVF SYSSTRLEN,W,BANKED
00130C	5CEF	SUBWF INDF0,W,ACCESS
00130E	B0D8	BTFSC STATUS, C,ACCESS
001310	D050	BRA ELSE62_1
001312	C08F FFE9	MOVFF SYSSYSINSTRINGHANDLER,AFSR0
001316	C090 FFEA	MOVFF SYSSYSINSTRINGHANDLER_H,AFSR0_H
00131A	CFEF F074	MOVFF INDF0,SYSCHARCOUNT
00131E	EE1D F0EC	LFSR 1,PAD
001322	0E10	MOVLW LOW STRINGTABLE63
001324	6EF6	MOVWF TBLPTRL,ACCESS
001326	0E19	MOVLW HIGH STRINGTABLE63
001328	6EF7	MOVWF TBLPTRH,ACCESS
00132A	DABA	RCALL SYSREADSTRING
00132C	6B8B	CLRF SYSSTRINGTEMP,BANKED
00132E	0E01	MOVLW 1
001330	5D74	SUBWF SYSCHARCOUNT,W,BANKED
001332	A0D8	BTFSS STATUS, C,ACCESS
001334	D017	BRA SYSFORLOOPEND17
		ENDIF63
		SYSFORLOOP17
001336	2B8B	INCF SYSSTRINGTEMP,F,BANKED
001338	518B	MOVF SYSSTRINGTEMP,W,BANKED
00133A	258F	ADDWF SYSSYSINSTRINGHANDLER,W,BANKED
00133C	6EE9	MOVWF AFSR0,ACCESS
00133E	0E00	MOVLW 0
001340	2190	ADDWFC SYSSYSINSTRINGHANDLER_H,W,BANKED
001342	6EEA	MOVWF AFSR0_H,ACCESS
001344	CFEE F072	MOVFF POSTINC0,SYSARRAYTEMP1
001348	C072 F073	MOVFF SYSARRAYTEMP1,SYSARRAYTEMP2
00134C	EE0D F0EC	LFSR 0,PAD
001350	518B	MOVF SYSSTRINGTEMP,W,BANKED
001352	26E9	ADDWF AFSR0,F,ACCESS
001354	0E00	MOVLW 0
001356	22EA	ADDWFC AFSR0_H,F,ACCESS
001358	C073 FFEE	MOVFF SYSARRAYTEMP2,POSTINC0
00135C	5174	MOVF SYSCHARCOUNT,W,BANKED
00135E	5D8B	SUBWF SYSSTRINGTEMP,W,BANKED
001360	A0D8	BTFSS STATUS, C,ACCESS
001362	D7E9	BRA SYSFORLOOP17
		ENDIF64
		SYSFORLOOPEND17
001364	2974	INCF SYSCHARCOUNT,W,BANKED
001366	6F91	MOVWF SYSTEMP1,BANKED
001368	0591	DECF SYSTEMP1,W,BANKED
00136A	6F8B	MOVWF SYSSTRINGTEMP,BANKED
00136C	2974	INCF SYSCHARCOUNT,W,BANKED
00136E	6F91	MOVWF SYSTEMP1,BANKED
001370	C091 F009	MOVFF SYSTEMP1,SYSBYTETEMPB
001374	C08C F005	MOVFF SYSSTRLEN,SYSBYTETEMPA
001378	D95B	RCALL SYSCOMPLESSTHAN
00137A	B000	BTFSC SYSBYTETEMPX,0,ACCESS
00137C	D017	BRA SYSFORLOOPEND18
		ENDIF65
		SYSFORLOOP18
00137E	2B8B	INCF SYSSTRINGTEMP,F,BANKED
001380	0E01	MOVLW 1
001382	258D	ADDWF SYSSYSINSTRING3HANDLER,W,BANKED
001384	6EE9	MOVWF AFSR0,ACCESS
001386	0E00	MOVLW 0
001388	218E	ADDWFC SYSSYSINSTRING3HANDLER_H,W,BANKED
00138A	6EEA	MOVWF AFSR0_H,ACCESS
00138C	CFEE F073	MOVFF POSTINC0,SYSARRAYTEMP2
001390	C073 F072	MOVFF SYSARRAYTEMP2,SYSARRAYTEMP1
001394	EE0D F0EC	LFSR 0,PAD
001398	518B	MOVF SYSSTRINGTEMP,W,BANKED
00139A	26E9	ADDWF AFSR0,F,ACCESS
00139C	0E00	MOVLW 0
00139E	22EA	ADDWFC AFSR0_H,F,ACCESS
0013A0	C072 FFEE	MOVFF SYSARRAYTEMP1,POSTINC0
0013A4	518C	MOVF SYSSTRLEN,W,BANKED
0013A6	5D8B	SUBWF SYSSTRINGTEMP,W,BANKED
0013A8	A0D8	BTFSS STATUS, C,ACCESS
0013AA	D7E9	BRA SYSFORLOOP18
		ENDIF66
		SYSFORLOOPEND18
0013AC	C08C FDEC	MOVFF SYSSTRLEN,SYSPAD_0
0013B0	D02C	BRA ENDIF62
		ELSE62_1
0013B2	6B8B	CLRF SYSSTRINGTEMP,BANKED
0013B4	C08F FFE9	MOVFF SYSSYSINSTRINGHANDLER,AFSR0
0013B8	C090 FFEA	MOVFF SYSSYSINSTRINGHANDLER_H,AFSR0_H
0013BC	0E01	MOVLW 1
0013BE	5CEF	SUBWF INDF0,W,ACCESS
0013C0	A0D8	BTFSS STATUS, C,ACCESS
0013C2	D01B	BRA SYSFORLOOPEND19
		ENDIF67
		SYSFORLOOP19
0013C4	2B8B	INCF SYSSTRINGTEMP,F,BANKED
0013C6	518B	MOVF SYSSTRINGTEMP,W,BANKED
0013C8	258F	ADDWF SYSSYSINSTRINGHANDLER,W,BANKED
0013CA	6EE9	MOVWF AFSR0,ACCESS
0013CC	0E00	MOVLW 0
0013CE	2190	ADDWFC SYSSYSINSTRINGHANDLER_H,W,BANKED
0013D0	6EEA	MOVWF AFSR0_H,ACCESS
0013D2	CFEE F072	MOVFF POSTINC0,SYSARRAYTEMP1
0013D6	C072 F073	MOVFF SYSARRAYTEMP1,SYSARRAYTEMP2
0013DA	EE0D F0EC	LFSR 0,PAD
0013DE	518B	MOVF SYSSTRINGTEMP,W,BANKED
0013E0	26E9	ADDWF AFSR0,F,ACCESS
0013E2	0E00	MOVLW 0
0013E4	22EA	ADDWFC AFSR0_H,F,ACCESS
0013E6	C073 FFEE	MOVFF SYSARRAYTEMP2,POSTINC0
0013EA	C08F FFE9	MOVFF SYSSYSINSTRINGHANDLER,AFSR0
0013EE	C090 FFEA	MOVFF SYSSYSINSTRINGHANDLER_H,AFSR0_H
0013F2	50EF	MOVF INDF0,W,ACCESS
0013F4	5D8B	SUBWF SYSSTRINGTEMP,W,BANKED
0013F6	A0D8	BTFSS STATUS, C,ACCESS
0013F8	D7E5	BRA SYSFORLOOP19
		ENDIF68
		SYSFORLOOPEND19
0013FA	C08F FFE9	MOVFF SYSSYSINSTRINGHANDLER,AFSR0
0013FE	C090 FFEA	MOVFF SYSSYSINSTRINGHANDLER_H,AFSR0_H
001402	CFEE F072	MOVFF POSTINC0,SYSARRAYTEMP1
001406	C072 FDEC	MOVFF SYSARRAYTEMP1,SYSPAD_0
		ENDIF62
00140A	0012	RETURN


		PSET_NT7108C
00140C	0E3F	MOVLW 63
00140E	1740	ANDWF GLCDY,F,BANKED
001410	0E7F	MOVLW 127
001412	173F	ANDWF GLCDX,F,BANKED
001414	BD3F	BTFSC GLCDX,6,BANKED
001416	D002	BRA ENDIF40
001418	808B	BSF LATC,0,ACCESS
00141A	928B	BCF LATC,1,ACCESS
		ENDIF40
00141C	AD3F	BTFSS GLCDX,6,BANKED
00141E	D004	BRA ENDIF41
001420	828B	BSF LATC,1,ACCESS
001422	0E40	MOVLW 64
001424	5F3F	SUBWF GLCDX,F,BANKED
001426	908B	BCF LATC,0,ACCESS
		ENDIF41
001428	C040 F005	MOVFF GLCDY,SYSBYTETEMPA
00142C	0E08	MOVLW 8
00142E	6E09	MOVWF SYSBYTETEMPB,ACCESS
001430	D94B	RCALL SYSDIVSUB
001432	C005 F021	MOVFF SYSBYTETEMPA,CURRPAGE
001436	908D	BCF LATE,0,ACCESS
001438	0EB8	MOVLW 184
00143A	1121	IORWF CURRPAGE,W,BANKED
00143C	6F46	MOVWF LCDBYTE,BANKED
00143E	DD98	RCALL GLCDWRITEBYTE_NT7108C
001440	908D	BCF LATE,0,ACCESS
001442	0E40	MOVLW 64
001444	113F	IORWF GLCDX,W,BANKED
001446	6F46	MOVWF LCDBYTE,BANKED
001448	DD93	RCALL GLCDWRITEBYTE_NT7108C
00144A	808D	BSF LATE,0,ACCESS
00144C	DD82	RCALL FN_GLCDREADBYTE_NT7108C
00144E	C03C F032	MOVFF GLCDREADBYTE_NT7108C,GLCDDATATEMP
001452	908D	BCF LATE,0,ACCESS
001454	0E40	MOVLW 64
001456	113F	IORWF GLCDX,W,BANKED
001458	6F46	MOVWF LCDBYTE,BANKED
00145A	DD8A	RCALL GLCDWRITEBYTE_NT7108C
00145C	808D	BSF LATE,0,ACCESS
00145E	DD79	RCALL FN_GLCDREADBYTE_NT7108C
001460	C03C F032	MOVFF GLCDREADBYTE_NT7108C,GLCDDATATEMP
001464	0E07	MOVLW 7
001466	1540	ANDWF GLCDY,W,BANKED
001468	6F2E	MOVWF GLCDBITNO,BANKED
00146A	B130	BTFSC GLCDCOLOUR,0,BANKED
00146C	D004	BRA ELSE42_1
00146E	0EFE	MOVLW 254
001470	6F2F	MOVWF GLCDCHANGE,BANKED
001472	80D8	BSF STATUS,C,ACCESS
001474	D003	BRA ENDIF42
		ELSE42_1
001476	0E01	MOVLW 1
001478	6F2F	MOVWF GLCDCHANGE,BANKED
00147A	90D8	BCF STATUS,C,ACCESS
		ENDIF42
00147C	C02E F089	MOVFF GLCDBITNO,SYSREPEATTEMP1
001480	5389	MOVF SYSREPEATTEMP1,F,BANKED
001482	B4D8	BTFSC STATUS, Z,ACCESS
001484	D003	BRA SYSREPEATLOOPEND1
		SYSREPEATLOOP1
001486	372F	RLCF GLCDCHANGE,F,BANKED
001488	2F89	DECFSZ SYSREPEATTEMP1,F,BANKED
00148A	D7FD	BRA SYSREPEATLOOP1
		SYSREPEATLOOPEND1
00148C	B130	BTFSC GLCDCOLOUR,0,BANKED
00148E	D004	BRA ELSE43_1
001490	5132	MOVF GLCDDATATEMP,W,BANKED
001492	152F	ANDWF GLCDCHANGE,W,BANKED
001494	6F32	MOVWF GLCDDATATEMP,BANKED
001496	D003	BRA ENDIF43
		ELSE43_1
001498	5132	MOVF GLCDDATATEMP,W,BANKED
00149A	112F	IORWF GLCDCHANGE,W,BANKED
00149C	6F32	MOVWF GLCDDATATEMP,BANKED
		ENDIF43
00149E	908D	BCF LATE,0,ACCESS
0014A0	0E40	MOVLW 64
0014A2	113F	IORWF GLCDX,W,BANKED
0014A4	6F46	MOVWF LCDBYTE,BANKED
0014A6	DD64	RCALL GLCDWRITEBYTE_NT7108C
0014A8	808D	BSF LATE,0,ACCESS
0014AA	C032 F046	MOVFF GLCDDATATEMP,LCDBYTE
0014AE	DD60	RCALL GLCDWRITEBYTE_NT7108C
0014B0	928B	BCF LATC,1,ACCESS
0014B2	908B	BCF LATC,0,ACCESS
0014B4	0012	RETURN


		FN_STR
0014B6	6B74	CLRF SYSCHARCOUNT,BANKED
0014B8	C099 F005	MOVFF SYSVALTEMP,SYSWORDTEMPA
0014BC	C09A F006	MOVFF SYSVALTEMP_H,SYSWORDTEMPA_H
0014C0	0E10	MOVLW 16
0014C2	6E09	MOVWF SYSWORDTEMPB,ACCESS
0014C4	0E27	MOVLW 39
0014C6	6E0A	MOVWF SYSWORDTEMPB_H,ACCESS
0014C8	D8B8	RCALL SYSCOMPLESSTHAN16
0014CA	1E00	COMF SYSBYTETEMPX,F,ACCESS
0014CC	A000	BTFSS SYSBYTETEMPX,0,ACCESS
0014CE	D01A	BRA ENDIF55
0014D0	C099 F005	MOVFF SYSVALTEMP,SYSWORDTEMPA
0014D4	C09A F006	MOVFF SYSVALTEMP_H,SYSWORDTEMPA_H
0014D8	0E10	MOVLW 16
0014DA	6E09	MOVWF SYSWORDTEMPB,ACCESS
0014DC	0E27	MOVLW 39
0014DE	6E0A	MOVWF SYSWORDTEMPB_H,ACCESS
0014E0	D907	RCALL SYSDIVSUB16
0014E2	C005 F08A	MOVFF SYSWORDTEMPA,SYSSTRDATA
0014E6	C000 F099	MOVFF SYSCALCTEMPX,SYSVALTEMP
0014EA	C001 F09A	MOVFF SYSCALCTEMPX_H,SYSVALTEMP_H
0014EE	2B74	INCF SYSCHARCOUNT,F,BANKED
0014F0	EE0D F0C6	LFSR 0,STR
0014F4	5174	MOVF SYSCHARCOUNT,W,BANKED
0014F6	26E9	ADDWF AFSR0,F,ACCESS
0014F8	0E00	MOVLW 0
0014FA	22EA	ADDWFC AFSR0_H,F,ACCESS
0014FC	0E30	MOVLW 48
0014FE	258A	ADDWF SYSSTRDATA,W,BANKED
001500	6EEF	MOVWF INDF0,ACCESS
001502	D00C	BRA SYSVALTHOUSANDS
		ENDIF55
001504	C099 F005	MOVFF SYSVALTEMP,SYSWORDTEMPA
001508	C09A F006	MOVFF SYSVALTEMP_H,SYSWORDTEMPA_H
00150C	0EE8	MOVLW 232
00150E	6E09	MOVWF SYSWORDTEMPB,ACCESS
001510	0E03	MOVLW 3
001512	6E0A	MOVWF SYSWORDTEMPB_H,ACCESS
001514	D892	RCALL SYSCOMPLESSTHAN16
001516	1E00	COMF SYSBYTETEMPX,F,ACCESS
001518	A000	BTFSS SYSBYTETEMPX,0,ACCESS
00151A	D01A	BRA ENDIF56
		SYSVALTHOUSANDS
00151C	C099 F005	MOVFF SYSVALTEMP,SYSWORDTEMPA
001520	C09A F006	MOVFF SYSVALTEMP_H,SYSWORDTEMPA_H
001524	0EE8	MOVLW 232
001526	6E09	MOVWF SYSWORDTEMPB,ACCESS
001528	0E03	MOVLW 3
00152A	6E0A	MOVWF SYSWORDTEMPB_H,ACCESS
00152C	D8E1	RCALL SYSDIVSUB16
00152E	C005 F08A	MOVFF SYSWORDTEMPA,SYSSTRDATA
001532	C000 F099	MOVFF SYSCALCTEMPX,SYSVALTEMP
001536	C001 F09A	MOVFF SYSCALCTEMPX_H,SYSVALTEMP_H
00153A	2B74	INCF SYSCHARCOUNT,F,BANKED
00153C	EE0D F0C6	LFSR 0,STR
001540	5174	MOVF SYSCHARCOUNT,W,BANKED
001542	26E9	ADDWF AFSR0,F,ACCESS
001544	0E00	MOVLW 0
001546	22EA	ADDWFC AFSR0_H,F,ACCESS
001548	0E30	MOVLW 48
00154A	258A	ADDWF SYSSTRDATA,W,BANKED
00154C	6EEF	MOVWF INDF0,ACCESS
00154E	D00B	BRA SYSVALHUNDREDS
		ENDIF56
001550	C099 F005	MOVFF SYSVALTEMP,SYSWORDTEMPA
001554	C09A F006	MOVFF SYSVALTEMP_H,SYSWORDTEMPA_H
001558	0E64	MOVLW 100
00155A	6E09	MOVWF SYSWORDTEMPB,ACCESS
00155C	6A0A	CLRF SYSWORDTEMPB_H,ACCESS
00155E	D86D	RCALL SYSCOMPLESSTHAN16
001560	1E00	COMF SYSBYTETEMPX,F,ACCESS
001562	A000	BTFSS SYSBYTETEMPX,0,ACCESS
001564	D019	BRA ENDIF57
		SYSVALHUNDREDS
001566	C099 F005	MOVFF SYSVALTEMP,SYSWORDTEMPA
00156A	C09A F006	MOVFF SYSVALTEMP_H,SYSWORDTEMPA_H
00156E	0E64	MOVLW 100
001570	6E09	MOVWF SYSWORDTEMPB,ACCESS
001572	6A0A	CLRF SYSWORDTEMPB_H,ACCESS
001574	D8BD	RCALL SYSDIVSUB16
001576	C005 F08A	MOVFF SYSWORDTEMPA,SYSSTRDATA
00157A	C000 F099	MOVFF SYSCALCTEMPX,SYSVALTEMP
00157E	C001 F09A	MOVFF SYSCALCTEMPX_H,SYSVALTEMP_H
001582	2B74	INCF SYSCHARCOUNT,F,BANKED
001584	EE0D F0C6	LFSR 0,STR
001588	5174	MOVF SYSCHARCOUNT,W,BANKED
00158A	26E9	ADDWF AFSR0,F,ACCESS
00158C	0E00	MOVLW 0
00158E	22EA	ADDWFC AFSR0_H,F,ACCESS
001590	0E30	MOVLW 48
001592	258A	ADDWF SYSSTRDATA,W,BANKED
001594	6EEF	MOVWF INDF0,ACCESS
001596	D00B	BRA SYSVALTENS
		ENDIF57
001598	C099 F005	MOVFF SYSVALTEMP,SYSWORDTEMPA
00159C	C09A F006	MOVFF SYSVALTEMP_H,SYSWORDTEMPA_H
0015A0	0E0A	MOVLW 10
0015A2	6E09	MOVWF SYSWORDTEMPB,ACCESS
0015A4	6A0A	CLRF SYSWORDTEMPB_H,ACCESS
0015A6	D849	RCALL SYSCOMPLESSTHAN16
0015A8	1E00	COMF SYSBYTETEMPX,F,ACCESS
0015AA	A000	BTFSS SYSBYTETEMPX,0,ACCESS
0015AC	D018	BRA ENDIF58
		SYSVALTENS
0015AE	C099 F005	MOVFF SYSVALTEMP,SYSWORDTEMPA
0015B2	C09A F006	MOVFF SYSVALTEMP_H,SYSWORDTEMPA_H
0015B6	0E0A	MOVLW 10
0015B8	6E09	MOVWF SYSWORDTEMPB,ACCESS
0015BA	6A0A	CLRF SYSWORDTEMPB_H,ACCESS
0015BC	D899	RCALL SYSDIVSUB16
0015BE	C005 F08A	MOVFF SYSWORDTEMPA,SYSSTRDATA
0015C2	C000 F099	MOVFF SYSCALCTEMPX,SYSVALTEMP
0015C6	C001 F09A	MOVFF SYSCALCTEMPX_H,SYSVALTEMP_H
0015CA	2B74	INCF SYSCHARCOUNT,F,BANKED
0015CC	EE0D F0C6	LFSR 0,STR
0015D0	5174	MOVF SYSCHARCOUNT,W,BANKED
0015D2	26E9	ADDWF AFSR0,F,ACCESS
0015D4	0E00	MOVLW 0
0015D6	22EA	ADDWFC AFSR0_H,F,ACCESS
0015D8	0E30	MOVLW 48
0015DA	258A	ADDWF SYSSTRDATA,W,BANKED
0015DC	6EEF	MOVWF INDF0,ACCESS
		ENDIF58
0015DE	2B74	INCF SYSCHARCOUNT,F,BANKED
0015E0	EE0D F0C6	LFSR 0,STR
0015E4	5174	MOVF SYSCHARCOUNT,W,BANKED
0015E6	26E9	ADDWF AFSR0,F,ACCESS
0015E8	0E00	MOVLW 0
0015EA	22EA	ADDWFC AFSR0_H,F,ACCESS
0015EC	0E30	MOVLW 48
0015EE	2599	ADDWF SYSVALTEMP,W,BANKED
0015F0	6EEF	MOVWF INDF0,ACCESS
0015F2	C000 F099	MOVFF SYSCALCTEMPX,SYSVALTEMP
0015F6	C001 F09A	MOVFF SYSCALCTEMPX_H,SYSVALTEMP_H
0015FA	C074 FDC6	MOVFF SYSCHARCOUNT,SYSSTR_0
0015FE	0012	RETURN


		SYSCOMPEQUAL16
001600	6A00	CLRF SYSBYTETEMPX,ACCESS
001602	5009	MOVF SYSWORDTEMPB, W,ACCESS
001604	6205	CPFSEQ SYSWORDTEMPA,ACCESS
001606	0012	RETURN
001608	500A	MOVF SYSWORDTEMPB_H, W,ACCESS
00160A	6206	CPFSEQ SYSWORDTEMPA_H,ACCESS
00160C	0012	RETURN
00160E	6800	SETF SYSBYTETEMPX,ACCESS
001610	0012	RETURN


		SYSCOMPEQUAL32
001612	6A00	CLRF SYSBYTETEMPX,ACCESS
001614	5009	MOVF SYSLONGTEMPB, W,ACCESS
001616	6205	CPFSEQ SYSLONGTEMPA,ACCESS
001618	0012	RETURN
00161A	500A	MOVF SYSLONGTEMPB_H, W,ACCESS
00161C	6206	CPFSEQ SYSLONGTEMPA_H,ACCESS
00161E	0012	RETURN
001620	500B	MOVF SYSLONGTEMPB_U, W,ACCESS
001622	6207	CPFSEQ SYSLONGTEMPA_U,ACCESS
001624	0012	RETURN
001626	500C	MOVF SYSLONGTEMPB_E, W,ACCESS
001628	6208	CPFSEQ SYSLONGTEMPA_E,ACCESS
00162A	0012	RETURN
00162C	6800	SETF SYSBYTETEMPX,ACCESS
00162E	0012	RETURN


		SYSCOMPLESSTHAN
001630	6800	SETF SYSBYTETEMPX,ACCESS
001632	5009	MOVF SYSBYTETEMPB, W,ACCESS
001634	6005	CPFSLT SYSBYTETEMPA,ACCESS
001636	6A00	CLRF SYSBYTETEMPX,ACCESS
001638	0012	RETURN


		SYSCOMPLESSTHAN16
00163A	6A00	CLRF SYSBYTETEMPX,ACCESS
00163C	5006	MOVF SYSWORDTEMPA_H,W,ACCESS
00163E	5C0A	SUBWF SYSWORDTEMPB_H,W,ACCESS
001640	A0D8	BTFSS STATUS,C,ACCESS
001642	0012	RETURN
001644	500A	MOVF SYSWORDTEMPB_H,W,ACCESS
001646	5C06	SUBWF SYSWORDTEMPA_H,W,ACCESS
001648	E304	BNC SCLT16TRUE
00164A	5009	MOVF SYSWORDTEMPB,W,ACCESS
00164C	5C05	SUBWF SYSWORDTEMPA,W,ACCESS
00164E	B0D8	BTFSC STATUS,C,ACCESS
001650	0012	RETURN
		SCLT16TRUE
001652	1E00	COMF SYSBYTETEMPX,F,ACCESS
001654	0012	RETURN


		SYSCOMPLESSTHANINT
001656	6A00	CLRF SYSBYTETEMPX,ACCESS
001658	AE06	BTFSS SYSINTEGERTEMPA_H,7,ACCESS
00165A	D017	BRA ELSE52_1
00165C	BE0A	BTFSC SYSINTEGERTEMPB_H,7,ACCESS
00165E	D002	BRA ENDIF53
001660	1E00	COMF SYSBYTETEMPX,F,ACCESS
001662	0012	RETURN
		ENDIF53
001664	1C05	COMF SYSINTEGERTEMPA,W,ACCESS
001666	6E07	MOVWF SYSDIVMULTA,ACCESS
001668	1C06	COMF SYSINTEGERTEMPA_H,W,ACCESS
00166A	6E08	MOVWF SYSDIVMULTA_H,ACCESS
00166C	2A07	INCF SYSDIVMULTA,F,ACCESS
00166E	B4D8	BTFSC STATUS,Z,ACCESS
001670	2A08	INCF SYSDIVMULTA_H,F,ACCESS
001672	1C09	COMF SYSINTEGERTEMPB,W,ACCESS
001674	6E05	MOVWF SYSINTEGERTEMPA,ACCESS
001676	1C0A	COMF SYSINTEGERTEMPB_H,W,ACCESS
001678	6E06	MOVWF SYSINTEGERTEMPA_H,ACCESS
00167A	2A05	INCF SYSINTEGERTEMPA,F,ACCESS
00167C	B4D8	BTFSC STATUS,Z,ACCESS
00167E	2A06	INCF SYSINTEGERTEMPA_H,F,ACCESS
001680	C007 F009	MOVFF SYSDIVMULTA,SYSINTEGERTEMPB
001684	C008 F00A	MOVFF SYSDIVMULTA_H,SYSINTEGERTEMPB_H
001688	D002	BRA ENDIF52
		ELSE52_1
00168A	BE0A	BTFSC SYSINTEGERTEMPB_H,7,ACCESS
00168C	0012	RETURN
		ENDIF54
		ENDIF52
00168E	5006	MOVF SYSINTEGERTEMPA_H,W,ACCESS
001690	5C0A	SUBWF SYSINTEGERTEMPB_H,W,ACCESS
001692	A0D8	BTFSS STATUS,C,ACCESS
001694	0012	RETURN
001696	500A	MOVF SYSINTEGERTEMPB_H,W,ACCESS
001698	5C06	SUBWF SYSINTEGERTEMPA_H,W,ACCESS
00169A	E304	BNC SCLTINTTRUE
00169C	5009	MOVF SYSINTEGERTEMPB,W,ACCESS
00169E	5C05	SUBWF SYSINTEGERTEMPA,W,ACCESS
0016A0	B0D8	BTFSC STATUS,C,ACCESS
0016A2	0012	RETURN
		SCLTINTTRUE
0016A4	1E00	COMF SYSBYTETEMPX,F,ACCESS
0016A6	0012	RETURN


		SYSCOPYSTRING
0016A8	CFEF F005	MOVFF INDF0, SYSCALCTEMPA
0016AC	C005 FFE7	MOVFF SYSCALCTEMPA, INDF1
0016B0	D003	BRA SYSCOPYSTRINGCHECK
		SYSCOPYSTRINGPART
0016B2	50EF	MOVF INDF0, W,ACCESS
0016B4	6E05	MOVWF SYSCALCTEMPA,ACCESS
0016B6	2606	ADDWF SYSSTRINGLENGTH, F,ACCESS
		SYSCOPYSTRINGCHECK
0016B8	5205	MOVF SYSCALCTEMPA,F,ACCESS
0016BA	B4D8	BTFSC STATUS,Z,ACCESS
0016BC	0012	RETURN
		SYSSTRINGCOPY
0016BE	CFEC FFE4	MOVFF PREINC0, PREINC1
0016C2	2E05	DECFSZ SYSCALCTEMPA, F,ACCESS
0016C4	D7FC	BRA SYSSTRINGCOPY
0016C6	0012	RETURN


		SYSDIVSUB
0016C8	5209	MOVF SYSBYTETEMPB, F,ACCESS
0016CA	B4D8	BTFSC STATUS, Z,ACCESS
0016CC	0012	RETURN
0016CE	6A00	CLRF SYSBYTETEMPX,ACCESS
0016D0	0E08	MOVLW 8
0016D2	6E04	MOVWF SYSDIVLOOP,ACCESS
		SYSDIV8START
0016D4	90D8	BCF STATUS, C,ACCESS
0016D6	3605	RLCF SYSBYTETEMPA, F,ACCESS
0016D8	3600	RLCF SYSBYTETEMPX, F,ACCESS
0016DA	5009	MOVF SYSBYTETEMPB, W,ACCESS
0016DC	5E00	SUBWF SYSBYTETEMPX, F,ACCESS
0016DE	8005	BSF SYSBYTETEMPA, 0,ACCESS
0016E0	B0D8	BTFSC STATUS, C,ACCESS
0016E2	D003	BRA DIV8NOTNEG
0016E4	9005	BCF SYSBYTETEMPA, 0,ACCESS
0016E6	5009	MOVF SYSBYTETEMPB, W,ACCESS
0016E8	2600	ADDWF SYSBYTETEMPX, F,ACCESS
		DIV8NOTNEG
0016EA	2E04	DECFSZ SYSDIVLOOP, F,ACCESS
0016EC	D7F3	BRA SYSDIV8START
0016EE	0012	RETURN


		SYSDIVSUB16
0016F0	C005 F007	MOVFF SYSWORDTEMPA,SYSDIVMULTA
0016F4	C006 F008	MOVFF SYSWORDTEMPA_H,SYSDIVMULTA_H
0016F8	C009 F00B	MOVFF SYSWORDTEMPB,SYSDIVMULTB
0016FC	C00A F00C	MOVFF SYSWORDTEMPB_H,SYSDIVMULTB_H
001700	6A02	CLRF SYSDIVMULTX,ACCESS
001702	6A03	CLRF SYSDIVMULTX_H,ACCESS
001704	C00B F005	MOVFF SYSDIVMULTB,SYSWORDTEMPA
001708	C00C F006	MOVFF SYSDIVMULTB_H,SYSWORDTEMPA_H
00170C	6A09	CLRF SYSWORDTEMPB,ACCESS
00170E	6A0A	CLRF SYSWORDTEMPB_H,ACCESS
001710	DF77	RCALL SYSCOMPEQUAL16
001712	A000	BTFSS SYSBYTETEMPX,0,ACCESS
001714	D003	BRA ENDIF72
001716	6A05	CLRF SYSWORDTEMPA,ACCESS
001718	6A06	CLRF SYSWORDTEMPA_H,ACCESS
00171A	0012	RETURN
		ENDIF72
00171C	0E10	MOVLW 16
00171E	6E04	MOVWF SYSDIVLOOP,ACCESS
		SYSDIV16START
001720	90D8	BCF STATUS,C,ACCESS
001722	3607	RLCF SYSDIVMULTA,F,ACCESS
001724	3608	RLCF SYSDIVMULTA_H,F,ACCESS
001726	3602	RLCF SYSDIVMULTX,F,ACCESS
001728	3603	RLCF SYSDIVMULTX_H,F,ACCESS
00172A	500B	MOVF SYSDIVMULTB,W,ACCESS
00172C	5E02	SUBWF SYSDIVMULTX,F,ACCESS
00172E	500C	MOVF SYSDIVMULTB_H,W,ACCESS
001730	5A03	SUBWFB SYSDIVMULTX_H,F,ACCESS
001732	8007	BSF SYSDIVMULTA,0,ACCESS
001734	B0D8	BTFSC STATUS,C,ACCESS
001736	D005	BRA ENDIF73
001738	9007	BCF SYSDIVMULTA,0,ACCESS
00173A	500B	MOVF SYSDIVMULTB,W,ACCESS
00173C	2602	ADDWF SYSDIVMULTX,F,ACCESS
00173E	500C	MOVF SYSDIVMULTB_H,W,ACCESS
001740	2203	ADDWFC SYSDIVMULTX_H,F,ACCESS
		ENDIF73
001742	2E04	DECFSZ SYSDIVLOOP, F,ACCESS
001744	D7ED	BRA SYSDIV16START
001746	C007 F005	MOVFF SYSDIVMULTA,SYSWORDTEMPA
00174A	C008 F006	MOVFF SYSDIVMULTA_H,SYSWORDTEMPA_H
00174E	C002 F000	MOVFF SYSDIVMULTX,SYSWORDTEMPX
001752	C003 F001	MOVFF SYSDIVMULTX_H,SYSWORDTEMPX_H
001756	0012	RETURN


		SYSDIVSUB32
001758	C005 F079	MOVFF SYSLONGTEMPA,SYSLONGDIVMULTA
00175C	C006 F07A	MOVFF SYSLONGTEMPA_H,SYSLONGDIVMULTA_H
001760	C007 F07B	MOVFF SYSLONGTEMPA_U,SYSLONGDIVMULTA_U
001764	C008 F07C	MOVFF SYSLONGTEMPA_E,SYSLONGDIVMULTA_E
001768	C009 F07D	MOVFF SYSLONGTEMPB,SYSLONGDIVMULTB
00176C	C00A F07E	MOVFF SYSLONGTEMPB_H,SYSLONGDIVMULTB_H
001770	C00B F07F	MOVFF SYSLONGTEMPB_U,SYSLONGDIVMULTB_U
001774	C00C F080	MOVFF SYSLONGTEMPB_E,SYSLONGDIVMULTB_E
001778	6B81	CLRF SYSLONGDIVMULTX,BANKED
00177A	6B82	CLRF SYSLONGDIVMULTX_H,BANKED
00177C	6B83	CLRF SYSLONGDIVMULTX_U,BANKED
00177E	6B84	CLRF SYSLONGDIVMULTX_E,BANKED
001780	C07D F005	MOVFF SYSLONGDIVMULTB,SYSLONGTEMPA
001784	C07E F006	MOVFF SYSLONGDIVMULTB_H,SYSLONGTEMPA_H
001788	C07F F007	MOVFF SYSLONGDIVMULTB_U,SYSLONGTEMPA_U
00178C	C080 F008	MOVFF SYSLONGDIVMULTB_E,SYSLONGTEMPA_E
001790	6A09	CLRF SYSLONGTEMPB,ACCESS
001792	6A0A	CLRF SYSLONGTEMPB_H,ACCESS
001794	6A0B	CLRF SYSLONGTEMPB_U,ACCESS
001796	6A0C	CLRF SYSLONGTEMPB_E,ACCESS
001798	DF3C	RCALL SYSCOMPEQUAL32
00179A	A000	BTFSS SYSBYTETEMPX,0,ACCESS
00179C	D005	BRA ENDIF50
00179E	6A05	CLRF SYSLONGTEMPA,ACCESS
0017A0	6A06	CLRF SYSLONGTEMPA_H,ACCESS
0017A2	6A07	CLRF SYSLONGTEMPA_U,ACCESS
0017A4	6A08	CLRF SYSLONGTEMPA_E,ACCESS
0017A6	0012	RETURN
		ENDIF50
0017A8	0E20	MOVLW 32
0017AA	6E04	MOVWF SYSDIVLOOP,ACCESS
		SYSDIV32START
0017AC	90D8	BCF STATUS,C,ACCESS
0017AE	3779	RLCF SYSLONGDIVMULTA,F,BANKED
0017B0	377A	RLCF SYSLONGDIVMULTA_H,F,BANKED
0017B2	377B	RLCF SYSLONGDIVMULTA_U,F,BANKED
0017B4	377C	RLCF SYSLONGDIVMULTA_E,F,BANKED
0017B6	3781	RLCF SYSLONGDIVMULTX,F,BANKED
0017B8	3782	RLCF SYSLONGDIVMULTX_H,F,BANKED
0017BA	3783	RLCF SYSLONGDIVMULTX_U,F,BANKED
0017BC	3784	RLCF SYSLONGDIVMULTX_E,F,BANKED
0017BE	517D	MOVF SYSLONGDIVMULTB,W,BANKED
0017C0	5F81	SUBWF SYSLONGDIVMULTX,F,BANKED
0017C2	517E	MOVF SYSLONGDIVMULTB_H,W,BANKED
0017C4	5B82	SUBWFB SYSLONGDIVMULTX_H,F,BANKED
0017C6	517F	MOVF SYSLONGDIVMULTB_U,W,BANKED
0017C8	5B83	SUBWFB SYSLONGDIVMULTX_U,F,BANKED
0017CA	5180	MOVF SYSLONGDIVMULTB_E,W,BANKED
0017CC	5B84	SUBWFB SYSLONGDIVMULTX_E,F,BANKED
0017CE	8179	BSF SYSLONGDIVMULTA,0,BANKED
0017D0	B0D8	BTFSC STATUS,C,ACCESS
0017D2	D009	BRA ENDIF51
0017D4	9179	BCF SYSLONGDIVMULTA,0,BANKED
0017D6	517D	MOVF SYSLONGDIVMULTB,W,BANKED
0017D8	2781	ADDWF SYSLONGDIVMULTX,F,BANKED
0017DA	517E	MOVF SYSLONGDIVMULTB_H,W,BANKED
0017DC	2382	ADDWFC SYSLONGDIVMULTX_H,F,BANKED
0017DE	517F	MOVF SYSLONGDIVMULTB_U,W,BANKED
0017E0	2383	ADDWFC SYSLONGDIVMULTX_U,F,BANKED
0017E2	5180	MOVF SYSLONGDIVMULTB_E,W,BANKED
0017E4	2384	ADDWFC SYSLONGDIVMULTX_E,F,BANKED
		ENDIF51
0017E6	2E04	DECFSZ SYSDIVLOOP, F,ACCESS
0017E8	D7E1	BRA SYSDIV32START
0017EA	C079 F005	MOVFF SYSLONGDIVMULTA,SYSLONGTEMPA
0017EE	C07A F006	MOVFF SYSLONGDIVMULTA_H,SYSLONGTEMPA_H
0017F2	C07B F007	MOVFF SYSLONGDIVMULTA_U,SYSLONGTEMPA_U
0017F6	C07C F008	MOVFF SYSLONGDIVMULTA_E,SYSLONGTEMPA_E
0017FA	C081 F000	MOVFF SYSLONGDIVMULTX,SYSLONGTEMPX
0017FE	C082 F001	MOVFF SYSLONGDIVMULTX_H,SYSLONGTEMPX_H
001802	C083 F002	MOVFF SYSLONGDIVMULTX_U,SYSLONGTEMPX_U
001806	C084 F003	MOVFF SYSLONGDIVMULTX_E,SYSLONGTEMPX_E
00180A	0012	RETURN


		SYSDIVSUBINT
00180C	5006	MOVF SYSINTEGERTEMPA_H,W,ACCESS
00180E	180A	XORWF SYSINTEGERTEMPB_H,W,ACCESS
001810	6E0D	MOVWF SYSSIGNBYTE,ACCESS
001812	AE06	BTFSS SYSINTEGERTEMPA_H,7,ACCESS
001814	D005	BRA ENDIF47
001816	1E05	COMF SYSINTEGERTEMPA,F,ACCESS
001818	1E06	COMF SYSINTEGERTEMPA_H,F,ACCESS
00181A	2A05	INCF SYSINTEGERTEMPA,F,ACCESS
00181C	B4D8	BTFSC STATUS,Z,ACCESS
00181E	2A06	INCF SYSINTEGERTEMPA_H,F,ACCESS
		ENDIF47
001820	AE0A	BTFSS SYSINTEGERTEMPB_H,7,ACCESS
001822	D005	BRA ENDIF48
001824	1E09	COMF SYSINTEGERTEMPB,F,ACCESS
001826	1E0A	COMF SYSINTEGERTEMPB_H,F,ACCESS
001828	2A09	INCF SYSINTEGERTEMPB,F,ACCESS
00182A	B4D8	BTFSC STATUS,Z,ACCESS
00182C	2A0A	INCF SYSINTEGERTEMPB_H,F,ACCESS
		ENDIF48
00182E	DF60	RCALL SYSDIVSUB16
001830	AE0D	BTFSS SYSSIGNBYTE,7,ACCESS
001832	D00A	BRA ENDIF49
001834	1E05	COMF SYSINTEGERTEMPA,F,ACCESS
001836	1E06	COMF SYSINTEGERTEMPA_H,F,ACCESS
001838	2A05	INCF SYSINTEGERTEMPA,F,ACCESS
00183A	B4D8	BTFSC STATUS,Z,ACCESS
00183C	2A06	INCF SYSINTEGERTEMPA_H,F,ACCESS
00183E	1E00	COMF SYSINTEGERTEMPX,F,ACCESS
001840	1E01	COMF SYSINTEGERTEMPX_H,F,ACCESS
001842	2A00	INCF SYSINTEGERTEMPX,F,ACCESS
001844	B4D8	BTFSC STATUS,Z,ACCESS
001846	2A01	INCF SYSINTEGERTEMPX_H,F,ACCESS
		ENDIF49
001848	0012	RETURN


		SYSMULTSUB16
00184A	5005	MOVF SYSWORDTEMPA, W,ACCESS
00184C	0209	MULWF SYSWORDTEMPB,ACCESS
00184E	CFF3 F000	MOVFF PRODL, SYSWORDTEMPX
001852	CFF4 F001	MOVFF PRODH, SYSWORDTEMPX_H
001856	5005	MOVF SYSWORDTEMPA, W,ACCESS
001858	020A	MULWF SYSWORDTEMPB_H,ACCESS
00185A	50F3	MOVF PRODL, W,ACCESS
00185C	2601	ADDWF SYSWORDTEMPX_H, F,ACCESS
00185E	5006	MOVF SYSWORDTEMPA_H, W,ACCESS
001860	0209	MULWF SYSWORDTEMPB,ACCESS
001862	50F3	MOVF PRODL, W,ACCESS
001864	2601	ADDWF SYSWORDTEMPX_H, F,ACCESS
001866	5206	MOVF SYSWORDTEMPA_H, F,ACCESS
001868	020A	MULWF SYSWORDTEMPB_H,ACCESS
00186A	0012	RETURN


		SYSMULTSUBINT
00186C	5006	MOVF SYSINTEGERTEMPA_H,W,ACCESS
00186E	180A	XORWF SYSINTEGERTEMPB_H,W,ACCESS
001870	6E0D	MOVWF SYSSIGNBYTE,ACCESS
001872	AE06	BTFSS SYSINTEGERTEMPA_H,7,ACCESS
001874	D005	BRA ENDIF44
001876	1E05	COMF SYSINTEGERTEMPA,F,ACCESS
001878	1E06	COMF SYSINTEGERTEMPA_H,F,ACCESS
00187A	2A05	INCF SYSINTEGERTEMPA,F,ACCESS
00187C	B4D8	BTFSC STATUS,Z,ACCESS
00187E	2A06	INCF SYSINTEGERTEMPA_H,F,ACCESS
		ENDIF44
001880	AE0A	BTFSS SYSINTEGERTEMPB_H,7,ACCESS
001882	D005	BRA ENDIF45
001884	1E09	COMF SYSINTEGERTEMPB,F,ACCESS
001886	1E0A	COMF SYSINTEGERTEMPB_H,F,ACCESS
001888	2A09	INCF SYSINTEGERTEMPB,F,ACCESS
00188A	B4D8	BTFSC STATUS,Z,ACCESS
00188C	2A0A	INCF SYSINTEGERTEMPB_H,F,ACCESS
		ENDIF45
00188E	DFDD	RCALL SYSMULTSUB16
001890	AE0D	BTFSS SYSSIGNBYTE,7,ACCESS
001892	D005	BRA ENDIF46
001894	1E00	COMF SYSINTEGERTEMPX,F,ACCESS
001896	1E01	COMF SYSINTEGERTEMPX_H,F,ACCESS
001898	2A00	INCF SYSINTEGERTEMPX,F,ACCESS
00189A	B4D8	BTFSC STATUS,Z,ACCESS
00189C	2A01	INCF SYSINTEGERTEMPX_H,F,ACCESS
		ENDIF46
00189E	0012	RETURN


		SYSREADSTRING
0018A0	0009	TBLRD*+
0018A2	CFF5 F005	MOVFF TABLAT,SYSCALCTEMPA
0018A6	CFF5 FFE7	MOVFF TABLAT,INDF1
0018AA	D004	BRA SYSSTRINGREADCHECK
		SYSREADSTRINGPART
0018AC	0009	TBLRD*+
0018AE	50F5	MOVF TABLAT, W,ACCESS
0018B0	6E05	MOVWF SYSCALCTEMPA,ACCESS
0018B2	2606	ADDWF SYSSTRINGLENGTH,F,ACCESS
		SYSSTRINGREADCHECK
0018B4	5205	MOVF SYSCALCTEMPA,F,ACCESS
0018B6	B4D8	BTFSC STATUS,Z,ACCESS
0018B8	0012	RETURN
		SYSSTRINGREAD
0018BA	0009	TBLRD*+
0018BC	CFF5 FFE4	MOVFF TABLAT,PREINC1
0018C0	2E05	DECFSZ SYSCALCTEMPA, F,ACCESS
0018C2	D7FB	BRA SYSSTRINGREAD
0018C4	0012	RETURN


		SYSSTRINGTABLES

		STRINGTABLE1
0018C6	5404 7365 0074	RAW 5404,7365,0074


		STRINGTABLE2
0018CC	4714 6572 7461 4320 776F 4220 5341 4349 3220 3130 0038	RAW 4714,6572,7461,4320,776F,4220,5341,4349,3220,3130,0038


		STRINGTABLE3
0018E2	400D 7645 6E61 5220 202E 6556 6E6E	RAW 400D,7645,6E61,5220,202E,6556,6E6E


		STRINGTABLE4
0018F0	5008 6972 746E 7453 0072	RAW 5008,6972,746E,7453,0072


		STRINGTABLE5
0018FA	4C04 5441 0040	RAW 4C04,5441,0040


		STRINGTABLE6
001900	4D03 7A68	RAW 4D03,7A68


		STRINGTABLE7
001904	4407 6172 5377 7274	RAW 4407,6172,5377,7274


		STRINGTABLE8
00190C	6801	RAW 6801


		STRINGTABLE38
00190E	2001	RAW 2001


		STRINGTABLE63
001910	0000	RAW 0000



